---
triple:          'arm64-apple-darwin'
binary-path:     EmailSystem
relocations:
  - { offsetInCU: 0xB9B0, offset: 0xB9B0, size: 0x8, addend: 0x0, symName: __ZNSt3__17advanceB8ue170006IP5EmailllvEEvRT_T0_, symObjAddr: 0x3D80, symBinAddr: 0x100005530, symSize: 0x38 }
  - { offsetInCU: 0xBF05, offset: 0xBF05, size: 0x8, addend: 0x0, symName: __ZNSt3__124__put_character_sequenceB8ue170006IcNS_11char_traitsIcEEEERNS_13basic_ostreamIT_T0_EES7_PKS4_m, symObjAddr: 0x58C4, symBinAddr: 0x100007074, symSize: 0x1EC }
  - { offsetInCU: 0xE4DD, offset: 0xE4DD, size: 0x8, addend: 0x0, symName: __ZNSt3__17getlineB8ue170006IcNS_11char_traitsIcEENS_9allocatorIcEEEERNS_13basic_istreamIT_T0_EES9_RNS_12basic_stringIS6_S7_T1_EE, symObjAddr: 0xCE0, symBinAddr: 0x100002490, symSize: 0x5C }
  - { offsetInCU: 0xE95E, offset: 0xE95E, size: 0x8, addend: 0x0, symName: __ZNSt3__17getlineB8ue170006IcNS_11char_traitsIcEENS_9allocatorIcEEEERNS_13basic_istreamIT_T0_EES9_RNS_12basic_stringIS6_S7_T1_EES6_, symObjAddr: 0xE78, symBinAddr: 0x100002628, symSize: 0x238 }
  - { offsetInCU: 0xEA27, offset: 0xEA27, size: 0x8, addend: 0x0, symName: __ZNSt3__1lsB8ue170006INS_11char_traitsIcEEEERNS_13basic_ostreamIcT_EES6_PKc, symObjAddr: 0x1470, symBinAddr: 0x100002C20, symSize: 0x48 }
  - { offsetInCU: 0xEA6D, offset: 0xEA6D, size: 0x8, addend: 0x0, symName: __ZNSt3__14endlB8ue170006IcNS_11char_traitsIcEEEERNS_13basic_ostreamIT_T0_EES7_, symObjAddr: 0x14E4, symBinAddr: 0x100002C94, symSize: 0x58 }
  - { offsetInCU: 0xEAAD, offset: 0xEAAD, size: 0x8, addend: 0x0, symName: __ZNSt3__1lsB8ue170006IcNS_11char_traitsIcEENS_9allocatorIcEEEERNS_13basic_ostreamIT_T0_EES9_RKNS_12basic_stringIS6_S7_T1_EE, symObjAddr: 0x153C, symBinAddr: 0x100002CEC, symSize: 0x4C }
  - { offsetInCU: 0xECFA, offset: 0xECFA, size: 0x8, addend: 0x0, symName: __ZNSt3__112__to_addressB8ue170006I5EmailEEPT_S3_, symObjAddr: 0x1C40, symBinAddr: 0x1000033F0, symSize: 0x14 }
  - { offsetInCU: 0xED2F, offset: 0xED2F, size: 0x8, addend: 0x0, symName: __ZNSt3__119__libcpp_deallocateB8ue170006EPvmm, symObjAddr: 0x1DAC, symBinAddr: 0x10000355C, symSize: 0x60 }
  - { offsetInCU: 0xED94, offset: 0xED94, size: 0x8, addend: 0x0, symName: __ZNSt3__124__is_overaligned_for_newB8ue170006Em, symObjAddr: 0x1E0C, symBinAddr: 0x1000035BC, symSize: 0x20 }
  - { offsetInCU: 0xEDC2, offset: 0xEDC2, size: 0x8, addend: 0x0, symName: __ZNSt3__127__do_deallocate_handle_sizeB8ue170006IJSt11align_val_tEEEvPvmDpT_, symObjAddr: 0x1E2C, symBinAddr: 0x1000035DC, symSize: 0x30 }
  - { offsetInCU: 0xEE15, offset: 0xEE15, size: 0x8, addend: 0x0, symName: __ZNSt3__127__do_deallocate_handle_sizeB8ue170006IJEEEvPvmDpT_, symObjAddr: 0x1E5C, symBinAddr: 0x10000360C, symSize: 0x28 }
  - { offsetInCU: 0xEE53, offset: 0xEE53, size: 0x8, addend: 0x0, symName: __ZNSt3__124__libcpp_operator_deleteB8ue170006IJPvSt11align_val_tEEEvDpT_, symObjAddr: 0x1E84, symBinAddr: 0x100003634, symSize: 0x2C }
  - { offsetInCU: 0xEE9C, offset: 0xEE9C, size: 0x8, addend: 0x0, symName: __ZNSt3__124__libcpp_operator_deleteB8ue170006IJPvEEEvDpT_, symObjAddr: 0x1EB0, symBinAddr: 0x100003660, symSize: 0x24 }
  - { offsetInCU: 0xEED1, offset: 0xEED1, size: 0x8, addend: 0x0, symName: __ZNSt3__19use_facetB8ue170006INS_5ctypeIcEEEERKT_RKNS_6localeE, symObjAddr: 0x263C, symBinAddr: 0x100003DEC, symSize: 0x2C }
  - { offsetInCU: 0xF5BD, offset: 0xF5BD, size: 0x8, addend: 0x0, symName: __ZNSt3__1eqB8ue170006INS_9allocatorIcEEEEbRKNS_12basic_stringIcNS_11char_traitsIcEET_EES9_, symObjAddr: 0x3170, symBinAddr: 0x100004920, symSize: 0x148 }
  - { offsetInCU: 0xF630, offset: 0xF630, size: 0x8, addend: 0x0, symName: __ZNSt3__1ltB8ue170006IcNS_11char_traitsIcEENS_9allocatorIcEEEEbRKNS_12basic_stringIT_T0_T1_EESB_, symObjAddr: 0x32B8, symBinAddr: 0x100004A68, symSize: 0x38 }
  - { offsetInCU: 0xF688, offset: 0xF688, size: 0x8, addend: 0x0, symName: __ZNSt3__112__to_addressB8ue170006IKcEEPT_S3_, symObjAddr: 0x334C, symBinAddr: 0x100004AFC, symSize: 0x14 }
  - { offsetInCU: 0xF6F0, offset: 0xF6F0, size: 0x8, addend: 0x0, symName: __ZNSt3__13minB8ue170006ImEERKT_S3_S3_, symObjAddr: 0x3610, symBinAddr: 0x100004DC0, symSize: 0x2C }
  - { offsetInCU: 0xF733, offset: 0xF733, size: 0x8, addend: 0x0, symName: __ZNSt3__13minB8ue170006ImNS_6__lessIvvEEEERKT_S5_S5_T0_, symObjAddr: 0x363C, symBinAddr: 0x100004DEC, symSize: 0x54 }
  - { offsetInCU: 0xF7D2, offset: 0xF7D2, size: 0x8, addend: 0x0, symName: __ZNSt3__18distanceB8ue170006IP5EmailEENS_15iterator_traitsIT_E15difference_typeES4_S4_, symObjAddr: 0x39C8, symBinAddr: 0x100005178, symSize: 0x2C }
  - { offsetInCU: 0xF815, offset: 0xF815, size: 0x8, addend: 0x0, symName: __ZNSt3__14nextB8ue170006IP5EmailEENS_9enable_ifIXsr29__has_input_iterator_categoryIT_EE5valueES4_E4typeES4_NS_15iterator_traitsIS4_E15difference_typeE, symObjAddr: 0x39F4, symBinAddr: 0x1000051A4, symSize: 0x34 }
  - { offsetInCU: 0xF858, offset: 0xF858, size: 0x8, addend: 0x0, symName: __ZNSt3__14copyB8ue170006IP5EmailS2_EET0_T_S4_S3_, symObjAddr: 0x3A28, symBinAddr: 0x1000051D8, symSize: 0x40 }
  - { offsetInCU: 0xF8B2, offset: 0xF8B2, size: 0x8, addend: 0x0, symName: __ZNSt3__16__copyB8ue170006INS_17_ClassicAlgPolicyEP5EmailS3_S3_EENS_4pairIT0_T2_EES5_T1_S6_, symObjAddr: 0x3AF4, symBinAddr: 0x1000052A4, symSize: 0x44 }
  - { offsetInCU: 0xF91E, offset: 0xF91E, size: 0x8, addend: 0x0, symName: __ZNSt3__121__convert_to_integralB8ue170006El, symObjAddr: 0x3DB8, symBinAddr: 0x100005568, symSize: 0x14 }
  - { offsetInCU: 0xF94A, offset: 0xF94A, size: 0x8, addend: 0x0, symName: __ZNSt3__19__advanceB8ue170006IP5EmailEEvRT_NS_15iterator_traitsIS3_E15difference_typeENS_26random_access_iterator_tagE, symObjAddr: 0x3DCC, symBinAddr: 0x10000557C, symSize: 0x30 }
  - { offsetInCU: 0xF993, offset: 0xF993, size: 0x8, addend: 0x0, symName: __ZNSt3__130__uninitialized_allocator_copyB8ue170006INS_9allocatorI5EmailEEPS2_S4_S4_EET2_RT_T0_T1_S5_, symObjAddr: 0x3E38, symBinAddr: 0x1000055E8, symSize: 0x80 }
  - { offsetInCU: 0xFA30, offset: 0xFA30, size: 0x8, addend: 0x0, symName: __ZNSt3__114__unwrap_rangeB8ue170006IP5EmailS2_EENS_4pairIT0_S4_EET_S6_, symObjAddr: 0x3F30, symBinAddr: 0x1000056E0, symSize: 0x60 }
  - { offsetInCU: 0xFA7C, offset: 0xFA7C, size: 0x8, addend: 0x0, symName: __ZNSt3__135__uninitialized_allocator_copy_implB8ue170006INS_9allocatorI5EmailEEPS2_S4_S4_EET2_RT_T0_T1_S5_, symObjAddr: 0x3F90, symBinAddr: 0x100005740, symSize: 0xF4 }
  - { offsetInCU: 0xFB1A, offset: 0xFB1A, size: 0x8, addend: 0x0, symName: __ZNSt3__113__unwrap_iterB8ue170006IP5EmailNS_18__unwrap_iter_implIS2_Lb1EEELi0EEEDTclsrT0_8__unwrapclsr3stdE7declvalIT_EEEES6_, symObjAddr: 0x4084, symBinAddr: 0x100005834, symSize: 0x24 }
  - { offsetInCU: 0xFB5E, offset: 0xFB5E, size: 0x8, addend: 0x0, symName: __ZNSt3__113__rewrap_iterB8ue170006IP5EmailS2_NS_18__unwrap_iter_implIS2_Lb1EEEEET_S5_T0_, symObjAddr: 0x40A8, symBinAddr: 0x100005858, symSize: 0x3C }
  - { offsetInCU: 0xFBB3, offset: 0xFBB3, size: 0x8, addend: 0x0, symName: __ZNSt3__19make_pairB8ue170006IP5EmailS2_EENS_4pairINS_18__unwrap_ref_decayIT_E4typeENS4_IT0_E4typeEEEOS5_OS8_, symObjAddr: 0x40E4, symBinAddr: 0x100005894, symSize: 0x38 }
  - { offsetInCU: 0xFCD6, offset: 0xFCD6, size: 0x8, addend: 0x0, symName: __ZNSt3__122__make_exception_guardB8ue170006INS_29_AllocatorDestroyRangeReverseINS_9allocatorI5EmailEEPS3_EEEENS_28__exception_guard_exceptionsIT_EES8_, symObjAddr: 0x418C, symBinAddr: 0x10000593C, symSize: 0x4C }
  - { offsetInCU: 0xFD0C, offset: 0xFD0C, size: 0x8, addend: 0x0, symName: __ZNSt3__119__allocator_destroyB8ue170006INS_9allocatorI5EmailEENS_16reverse_iteratorIPS2_EES6_EEvRT_T0_T1_, symObjAddr: 0x4530, symBinAddr: 0x100005CE0, symSize: 0x70 }
  - { offsetInCU: 0xFD6F, offset: 0xFD6F, size: 0x8, addend: 0x0, symName: __ZNSt3__1neB8ue170006IP5EmailS2_EEbRKNS_16reverse_iteratorIT_EERKNS3_IT0_EE, symObjAddr: 0x45D4, symBinAddr: 0x100005D84, symSize: 0x48 }
  - { offsetInCU: 0xFDBB, offset: 0xFDBB, size: 0x8, addend: 0x0, symName: __ZNSt3__112__to_addressB8ue170006INS_16reverse_iteratorIP5EmailEEvEEu7__decayIDTclsr19__to_address_helperIT_EE6__callclsr3stdE7declvalIRKS5_EEEEES7_, symObjAddr: 0x461C, symBinAddr: 0x100005DCC, symSize: 0x24 }
  - { offsetInCU: 0xFE6D, offset: 0xFE6D, size: 0x8, addend: 0x0, symName: __ZNSt3__123__dispatch_copy_or_moveB8ue170006INS_17_ClassicAlgPolicyENS_11__copy_loopIS1_EENS_14__copy_trivialEP5EmailS6_S6_EENS_4pairIT2_T4_EES8_T3_S9_, symObjAddr: 0x47C0, symBinAddr: 0x100005F70, symSize: 0x44 }
  - { offsetInCU: 0xFEEB, offset: 0xFEEB, size: 0x8, addend: 0x0, symName: __ZNSt3__121__unwrap_and_dispatchB8ue170006INS_10__overloadINS_11__copy_loopINS_17_ClassicAlgPolicyEEENS_14__copy_trivialEEEP5EmailS8_S8_Li0EEENS_4pairIT0_T2_EESA_T1_SB_, symObjAddr: 0x4804, symBinAddr: 0x100005FB4, symSize: 0xB4 }
  - { offsetInCU: 0xFFD4, offset: 0xFFD4, size: 0x8, addend: 0x0, symName: __ZNSt3__114__rewrap_rangeB8ue170006IP5EmailS2_EET_S3_T0_, symObjAddr: 0x4940, symBinAddr: 0x1000060F0, symSize: 0x2C }
  - { offsetInCU: 0x10020, offset: 0x10020, size: 0x8, addend: 0x0, symName: __ZNSt3__119__allocate_at_leastB8ue170006INS_9allocatorI5EmailEEEENS_19__allocation_resultINS_16allocator_traitsIT_E7pointerEEERS6_m, symObjAddr: 0x4BCC, symBinAddr: 0x10000637C, symSize: 0x40 }
  - { offsetInCU: 0x10063, offset: 0x10063, size: 0x8, addend: 0x0, symName: __ZNSt3__120__throw_length_errorB8ue170006EPKc, symObjAddr: 0x4D70, symBinAddr: 0x100006520, symSize: 0x64 }
  - { offsetInCU: 0x1008D, offset: 0x1008D, size: 0x8, addend: 0x0, symName: __ZNSt3__117__libcpp_allocateB8ue170006Emm, symObjAddr: 0x4EE4, symBinAddr: 0x100006694, symSize: 0x60 }
  - { offsetInCU: 0x100E7, offset: 0x100E7, size: 0x8, addend: 0x0, symName: __ZNSt3__121__libcpp_operator_newB8ue170006IJmSt11align_val_tEEEPvDpT_, symObjAddr: 0x4F44, symBinAddr: 0x1000066F4, symSize: 0x2C }
  - { offsetInCU: 0x10134, offset: 0x10134, size: 0x8, addend: 0x0, symName: __ZNSt3__121__libcpp_operator_newB8ue170006IJmEEEPvDpT_, symObjAddr: 0x4F70, symBinAddr: 0x100006720, symSize: 0x24 }
  - { offsetInCU: 0x1016D, offset: 0x1016D, size: 0x8, addend: 0x0, symName: __ZNSt3__13maxB8ue170006ImEERKT_S3_S3_, symObjAddr: 0x4F94, symBinAddr: 0x100006744, symSize: 0x2C }
  - { offsetInCU: 0x101B0, offset: 0x101B0, size: 0x8, addend: 0x0, symName: __ZNSt3__13maxB8ue170006ImNS_6__lessIvvEEEERKT_S5_S5_T0_, symObjAddr: 0x4FC0, symBinAddr: 0x100006770, symSize: 0x54 }
  - { offsetInCU: 0x1020A, offset: 0x1020A, size: 0x8, addend: 0x0, symName: __ZNSt3__110__distanceB8ue170006IP5EmailEENS_15iterator_traitsIT_E15difference_typeES4_S4_NS_26random_access_iterator_tagE, symObjAddr: 0x5014, symBinAddr: 0x1000067C4, symSize: 0x28 }
  - { offsetInCU: 0x10257, offset: 0x10257, size: 0x8, addend: 0x0, symName: __ZNSt3__1gtB8ue170006IcNS_11char_traitsIcEENS_9allocatorIcEEEEbRKNS_12basic_stringIT_T0_T1_EESB_, symObjAddr: 0x5364, symBinAddr: 0x100006B14, symSize: 0x30 }
  - { offsetInCU: 0x102AF, offset: 0x102AF, size: 0x8, addend: 0x0, symName: __ZNSt3__122__make_exception_guardB8ue170006INS_6vectorI5EmailNS_9allocatorIS2_EEE16__destroy_vectorEEENS_28__exception_guard_exceptionsIT_EES8_, symObjAddr: 0x579C, symBinAddr: 0x100006F4C, symSize: 0x40 }
  - { offsetInCU: 0x102E4, offset: 0x102E4, size: 0x8, addend: 0x0, symName: __ZNSt3__116__pad_and_outputB8ue170006IcNS_11char_traitsIcEEEENS_19ostreambuf_iteratorIT_T0_EES6_PKS4_S8_S8_RNS_8ios_baseES4_, symObjAddr: 0x5B00, symBinAddr: 0x1000072B0, symSize: 0x240 }
  - { offsetInCU: 0x103B3, offset: 0x103B3, size: 0x8, addend: 0x0, symName: __ZNSt3__112__to_addressB8ue170006IcEEPT_S2_, symObjAddr: 0x5F44, symBinAddr: 0x1000076F4, symSize: 0x14 }
  - { offsetInCU: 0x103E8, offset: 0x103E8, size: 0x8, addend: 0x0, symName: __ZNSt3__118__constexpr_strlenB8ue170006EPKc, symObjAddr: 0x6000, symBinAddr: 0x1000077B0, symSize: 0x24 }
  - { offsetInCU: 0x1090B, offset: 0x1090B, size: 0x8, addend: 0x0, symName: __ZSt28__throw_bad_array_new_lengthB8ue170006v, symObjAddr: 0x4EB0, symBinAddr: 0x100006660, symSize: 0x34 }
  - { offsetInCU: 0x137CD, offset: 0x137CD, size: 0x8, addend: 0x0, symName: _main, symObjAddr: 0x0, symBinAddr: 0x1000017B0, symSize: 0xAE0 }
  - { offsetInCU: 0x13CE0, offset: 0x13CE0, size: 0x8, addend: 0x0, symName: __ZN3MapINSt3__112basic_stringIcNS0_11char_traitsIcEENS0_9allocatorIcEEEE4UserEC1Ev, symObjAddr: 0xAF0, symBinAddr: 0x1000022A0, symSize: 0x2C }
  - { offsetInCU: 0x13D0A, offset: 0x13D0A, size: 0x8, addend: 0x0, symName: __ZNSt3__112basic_stringIcNS_11char_traitsIcEENS_9allocatorIcEEEC1B8ue170006Ev, symObjAddr: 0xB1C, symBinAddr: 0x1000022CC, symSize: 0x2C }
  - { offsetInCU: 0x13E57, offset: 0x13E57, size: 0x8, addend: 0x0, symName: __ZNSt3__114basic_ifstreamIcNS_11char_traitsIcEEEC1EPKcj, symObjAddr: 0xB48, symBinAddr: 0x1000022F8, symSize: 0x16C }
  - { offsetInCU: 0x13EA1, offset: 0x13EA1, size: 0x8, addend: 0x0, symName: __ZNKSt3__114basic_ifstreamIcNS_11char_traitsIcEEE7is_openEv, symObjAddr: 0xCB4, symBinAddr: 0x100002464, symSize: 0x2C }
  - { offsetInCU: 0x13EC9, offset: 0x13EC9, size: 0x8, addend: 0x0, symName: __ZNKSt3__19basic_iosIcNS_11char_traitsIcEEEcvbB8ue170006Ev, symObjAddr: 0xD3C, symBinAddr: 0x1000024EC, symSize: 0x2C }
  - { offsetInCU: 0x13F4E, offset: 0x13F4E, size: 0x8, addend: 0x0, symName: __ZNSt3__118basic_stringstreamIcNS_11char_traitsIcEENS_9allocatorIcEEEC1B8ue170006ERKNS_12basic_stringIcS2_S4_EEj, symObjAddr: 0xD68, symBinAddr: 0x100002518, symSize: 0x110 }
  - { offsetInCU: 0x13F96, offset: 0x13F96, size: 0x8, addend: 0x0, symName: __ZNK3MapINSt3__112basic_stringIcNS0_11char_traitsIcEENS0_9allocatorIcEEEE4UserE4findES6_RS7_, symObjAddr: 0x10B0, symBinAddr: 0x100002860, symSize: 0xE0 }
  - { offsetInCU: 0x13FE7, offset: 0x13FE7, size: 0x8, addend: 0x0, symName: __ZN3MapINSt3__112basic_stringIcNS0_11char_traitsIcEENS0_9allocatorIcEEEE4UserE6insertES6_RS7_, symObjAddr: 0x1190, symBinAddr: 0x100002940, symSize: 0xD0 }
  - { offsetInCU: 0x14029, offset: 0x14029, size: 0x8, addend: 0x0, symName: __Z10createUserRKNSt3__112basic_stringIcNS_11char_traitsIcEENS_9allocatorIcEEEE, symObjAddr: 0x1260, symBinAddr: 0x100002A10, symSize: 0x5C }
  - { offsetInCU: 0x14055, offset: 0x14055, size: 0x8, addend: 0x0, symName: __Z11createEmailRKNSt3__112basic_stringIcNS_11char_traitsIcEENS_9allocatorIcEEEES7_S7_, symObjAddr: 0x12BC, symBinAddr: 0x100002A6C, symSize: 0xF0 }
  - { offsetInCU: 0x1409E, offset: 0x1409E, size: 0x8, addend: 0x0, symName: __ZN4UserD1Ev, symObjAddr: 0x13AC, symBinAddr: 0x100002B5C, symSize: 0x2C }
  - { offsetInCU: 0x140CF, offset: 0x140CF, size: 0x8, addend: 0x0, symName: __ZNSt3__118basic_stringstreamIcNS_11char_traitsIcEENS_9allocatorIcEEED1Ev, symObjAddr: 0x13D8, symBinAddr: 0x100002B88, symSize: 0x40 }
  - { offsetInCU: 0x140FC, offset: 0x140FC, size: 0x8, addend: 0x0, symName: __ZNSt3__114basic_ifstreamIcNS_11char_traitsIcEEE5closeEv, symObjAddr: 0x1418, symBinAddr: 0x100002BC8, symSize: 0x58 }
  - { offsetInCU: 0x14124, offset: 0x14124, size: 0x8, addend: 0x0, symName: __ZNSt3__113basic_ostreamIcNS_11char_traitsIcEEElsB8ue170006EPFRS3_S4_E, symObjAddr: 0x14B8, symBinAddr: 0x100002C68, symSize: 0x2C }
  - { offsetInCU: 0x14157, offset: 0x14157, size: 0x8, addend: 0x0, symName: __Z14checkConditionRiii, symObjAddr: 0x1588, symBinAddr: 0x100002D38, symSize: 0x158 }
  - { offsetInCU: 0x141A1, offset: 0x141A1, size: 0x8, addend: 0x0, symName: __ZNSt3__114basic_ifstreamIcNS_11char_traitsIcEEED1Ev, symObjAddr: 0x16E0, symBinAddr: 0x100002E90, symSize: 0x40 }
  - { offsetInCU: 0x141CE, offset: 0x141CE, size: 0x8, addend: 0x0, symName: __ZN3MapINSt3__112basic_stringIcNS0_11char_traitsIcEENS0_9allocatorIcEEEE4UserED1Ev, symObjAddr: 0x1720, symBinAddr: 0x100002ED0, symSize: 0x2C }
  - { offsetInCU: 0x141FD, offset: 0x141FD, size: 0x8, addend: 0x0, symName: __ZNSt3__112basic_stringIcNS_11char_traitsIcEENS_9allocatorIcEEEC1B8ue170006ILi0EEEPKc, symObjAddr: 0x174C, symBinAddr: 0x100002EFC, symSize: 0x34 }
  - { offsetInCU: 0x1423C, offset: 0x1423C, size: 0x8, addend: 0x0, symName: __ZNSt3__114numeric_limitsIlE3maxB8ue170006Ev, symObjAddr: 0x1780, symBinAddr: 0x100002F30, symSize: 0x14 }
  - { offsetInCU: 0x14250, offset: 0x14250, size: 0x8, addend: 0x0, symName: __ZNKSt3__19basic_iosIcNS_11char_traitsIcEEE4failB8ue170006Ev, symObjAddr: 0x1794, symBinAddr: 0x100002F44, symSize: 0x28 }
  - { offsetInCU: 0x14276, offset: 0x14276, size: 0x8, addend: 0x0, symName: __ZNSt3__19basic_iosIcNS_11char_traitsIcEEE5clearB8ue170006Ej, symObjAddr: 0x17BC, symBinAddr: 0x100002F6C, symSize: 0x2C }
  - { offsetInCU: 0x142AB, offset: 0x142AB, size: 0x8, addend: 0x0, symName: __ZN4UserD2Ev, symObjAddr: 0x17E8, symBinAddr: 0x100002F98, symSize: 0x50 }
  - { offsetInCU: 0x142D7, offset: 0x142D7, size: 0x8, addend: 0x0, symName: __ZN5StackI5EmailED1Ev, symObjAddr: 0x1838, symBinAddr: 0x100002FE8, symSize: 0x2C }
  - { offsetInCU: 0x14301, offset: 0x14301, size: 0x8, addend: 0x0, symName: __ZN5StackI5EmailED2Ev, symObjAddr: 0x1864, symBinAddr: 0x100003014, symSize: 0x2C }
  - { offsetInCU: 0x1432B, offset: 0x1432B, size: 0x8, addend: 0x0, symName: __ZNSt3__16vectorI5EmailNS_9allocatorIS1_EEED1B8ue170006Ev, symObjAddr: 0x1890, symBinAddr: 0x100003040, symSize: 0x2C }
  - { offsetInCU: 0x14355, offset: 0x14355, size: 0x8, addend: 0x0, symName: __ZNSt3__16vectorI5EmailNS_9allocatorIS1_EEED2B8ue170006Ev, symObjAddr: 0x18BC, symBinAddr: 0x10000306C, symSize: 0x44 }
  - { offsetInCU: 0x1437F, offset: 0x1437F, size: 0x8, addend: 0x0, symName: __ZNSt3__16vectorI5EmailNS_9allocatorIS1_EEE16__destroy_vectorC1B8ue170006ERS4_, symObjAddr: 0x1900, symBinAddr: 0x1000030B0, symSize: 0x34 }
  - { offsetInCU: 0x143B8, offset: 0x143B8, size: 0x8, addend: 0x0, symName: __ZNSt3__16vectorI5EmailNS_9allocatorIS1_EEE16__destroy_vectorclB8ue170006Ev, symObjAddr: 0x1940, symBinAddr: 0x1000030F0, symSize: 0x90 }
  - { offsetInCU: 0x143DE, offset: 0x143DE, size: 0x8, addend: 0x0, symName: __ZNSt3__16vectorI5EmailNS_9allocatorIS1_EEE16__destroy_vectorC2B8ue170006ERS4_, symObjAddr: 0x19D0, symBinAddr: 0x100003180, symSize: 0x20 }
  - { offsetInCU: 0x14417, offset: 0x14417, size: 0x8, addend: 0x0, symName: __ZNSt3__16vectorI5EmailNS_9allocatorIS1_EEE7__clearB8ue170006Ev, symObjAddr: 0x19F0, symBinAddr: 0x1000031A0, symSize: 0x28 }
  - { offsetInCU: 0x1443D, offset: 0x1443D, size: 0x8, addend: 0x0, symName: __ZNKSt3__16vectorI5EmailNS_9allocatorIS1_EEE17__annotate_deleteB8ue170006Ev, symObjAddr: 0x1A18, symBinAddr: 0x1000031C8, symSize: 0xD4 }
  - { offsetInCU: 0x14463, offset: 0x14463, size: 0x8, addend: 0x0, symName: __ZNSt3__116allocator_traitsINS_9allocatorI5EmailEEE10deallocateB8ue170006ERS3_PS2_m, symObjAddr: 0x1AEC, symBinAddr: 0x10000329C, symSize: 0x34 }
  - { offsetInCU: 0x144A5, offset: 0x144A5, size: 0x8, addend: 0x0, symName: __ZNSt3__16vectorI5EmailNS_9allocatorIS1_EEE7__allocB8ue170006Ev, symObjAddr: 0x1B20, symBinAddr: 0x1000032D0, symSize: 0x28 }
  - { offsetInCU: 0x144CB, offset: 0x144CB, size: 0x8, addend: 0x0, symName: __ZNKSt3__16vectorI5EmailNS_9allocatorIS1_EEE8capacityB8ue170006Ev, symObjAddr: 0x1B48, symBinAddr: 0x1000032F8, symSize: 0x40 }
  - { offsetInCU: 0x144F1, offset: 0x144F1, size: 0x8, addend: 0x0, symName: __ZNSt3__16vectorI5EmailNS_9allocatorIS1_EEE22__base_destruct_at_endB8ue170006EPS1_, symObjAddr: 0x1B88, symBinAddr: 0x100003338, symSize: 0x8C }
  - { offsetInCU: 0x14535, offset: 0x14535, size: 0x8, addend: 0x0, symName: __ZNSt3__116allocator_traitsINS_9allocatorI5EmailEEE7destroyB8ue170006IS2_vEEvRS3_PT_, symObjAddr: 0x1C14, symBinAddr: 0x1000033C4, symSize: 0x2C }
  - { offsetInCU: 0x14572, offset: 0x14572, size: 0x8, addend: 0x0, symName: __ZNSt3__19allocatorI5EmailE7destroyB8ue170006EPS1_, symObjAddr: 0x1C54, symBinAddr: 0x100003404, symSize: 0x28 }
  - { offsetInCU: 0x145A6, offset: 0x145A6, size: 0x8, addend: 0x0, symName: __ZN5EmailD1Ev, symObjAddr: 0x1C7C, symBinAddr: 0x10000342C, symSize: 0x2C }
  - { offsetInCU: 0x145D2, offset: 0x145D2, size: 0x8, addend: 0x0, symName: __ZN5EmailD2Ev, symObjAddr: 0x1CA8, symBinAddr: 0x100003458, symSize: 0x50 }
  - { offsetInCU: 0x145FE, offset: 0x145FE, size: 0x8, addend: 0x0, symName: __ZNKSt3__16vectorI5EmailNS_9allocatorIS1_EEE31__annotate_contiguous_containerB8ue170006EPKvS6_S6_S6_, symObjAddr: 0x1CF8, symBinAddr: 0x1000034A8, symSize: 0x20 }
  - { offsetInCU: 0x14654, offset: 0x14654, size: 0x8, addend: 0x0, symName: __ZNKSt3__16vectorI5EmailNS_9allocatorIS1_EEE4dataB8ue170006Ev, symObjAddr: 0x1D18, symBinAddr: 0x1000034C8, symSize: 0x28 }
  - { offsetInCU: 0x1467A, offset: 0x1467A, size: 0x8, addend: 0x0, symName: __ZNKSt3__16vectorI5EmailNS_9allocatorIS1_EEE4sizeB8ue170006Ev, symObjAddr: 0x1D40, symBinAddr: 0x1000034F0, symSize: 0x28 }
  - { offsetInCU: 0x146A0, offset: 0x146A0, size: 0x8, addend: 0x0, symName: __ZNSt3__19allocatorI5EmailE10deallocateB8ue170006EPS1_m, symObjAddr: 0x1D68, symBinAddr: 0x100003518, symSize: 0x44 }
  - { offsetInCU: 0x146E2, offset: 0x146E2, size: 0x8, addend: 0x0, symName: __ZNSt3__117__compressed_pairIP5EmailNS_9allocatorIS1_EEE6secondB8ue170006Ev, symObjAddr: 0x1ED4, symBinAddr: 0x100003684, symSize: 0x24 }
  - { offsetInCU: 0x14708, offset: 0x14708, size: 0x8, addend: 0x0, symName: __ZNSt3__122__compressed_pair_elemINS_9allocatorI5EmailEELi1ELb1EE5__getB8ue170006Ev, symObjAddr: 0x1EF8, symBinAddr: 0x1000036A8, symSize: 0x14 }
  - { offsetInCU: 0x1472E, offset: 0x1472E, size: 0x8, addend: 0x0, symName: __ZNKSt3__16vectorI5EmailNS_9allocatorIS1_EEE9__end_capB8ue170006Ev, symObjAddr: 0x1F0C, symBinAddr: 0x1000036BC, symSize: 0x28 }
  - { offsetInCU: 0x14754, offset: 0x14754, size: 0x8, addend: 0x0, symName: __ZNKSt3__117__compressed_pairIP5EmailNS_9allocatorIS1_EEE5firstB8ue170006Ev, symObjAddr: 0x1F34, symBinAddr: 0x1000036E4, symSize: 0x24 }
  - { offsetInCU: 0x1477A, offset: 0x1477A, size: 0x8, addend: 0x0, symName: __ZNKSt3__122__compressed_pair_elemIP5EmailLi0ELb0EE5__getB8ue170006Ev, symObjAddr: 0x1F58, symBinAddr: 0x100003708, symSize: 0x14 }
  - { offsetInCU: 0x147A0, offset: 0x147A0, size: 0x8, addend: 0x0, symName: __ZNSt3__118basic_stringstreamIcNS_11char_traitsIcEENS_9allocatorIcEEED2Ev, symObjAddr: 0x1F6C, symBinAddr: 0x10000371C, symSize: 0x6C }
  - { offsetInCU: 0x147DA, offset: 0x147DA, size: 0x8, addend: 0x0, symName: __ZThn16_NSt3__118basic_stringstreamIcNS_11char_traitsIcEENS_9allocatorIcEEED1Ev, symObjAddr: 0x1FD8, symBinAddr: 0x100003788, symSize: 0x1C }
  - { offsetInCU: 0x147F1, offset: 0x147F1, size: 0x8, addend: 0x0, symName: __ZTv0_n24_NSt3__118basic_stringstreamIcNS_11char_traitsIcEENS_9allocatorIcEEED1Ev, symObjAddr: 0x1FF4, symBinAddr: 0x1000037A4, symSize: 0x28 }
  - { offsetInCU: 0x1480D, offset: 0x1480D, size: 0x8, addend: 0x0, symName: __ZNSt3__115basic_stringbufIcNS_11char_traitsIcEENS_9allocatorIcEEED1Ev, symObjAddr: 0x201C, symBinAddr: 0x1000037CC, symSize: 0x2C }
  - { offsetInCU: 0x1483A, offset: 0x1483A, size: 0x8, addend: 0x0, symName: __ZNSt3__115basic_stringbufIcNS_11char_traitsIcEENS_9allocatorIcEEED2Ev, symObjAddr: 0x2048, symBinAddr: 0x1000037F8, symSize: 0x48 }
  - { offsetInCU: 0x14867, offset: 0x14867, size: 0x8, addend: 0x0, symName: __ZNSt3__114basic_ifstreamIcNS_11char_traitsIcEEED2Ev, symObjAddr: 0x2090, symBinAddr: 0x100003840, symSize: 0x64 }
  - { offsetInCU: 0x148A1, offset: 0x148A1, size: 0x8, addend: 0x0, symName: __ZTv0_n24_NSt3__114basic_ifstreamIcNS_11char_traitsIcEEED1Ev, symObjAddr: 0x20F4, symBinAddr: 0x1000038A4, symSize: 0x28 }
  - { offsetInCU: 0x148B8, offset: 0x148B8, size: 0x8, addend: 0x0, symName: __ZNSt3__123__libcpp_numeric_limitsIlLb1EE3maxB8ue170006Ev, symObjAddr: 0x211C, symBinAddr: 0x1000038CC, symSize: 0x8 }
  - { offsetInCU: 0x148CC, offset: 0x148CC, size: 0x8, addend: 0x0, symName: __ZNSt3__112basic_stringIcNS_11char_traitsIcEENS_9allocatorIcEEEC2B8ue170006Ev, symObjAddr: 0x2124, symBinAddr: 0x1000038D4, symSize: 0x48 }
  - { offsetInCU: 0x148FB, offset: 0x148FB, size: 0x8, addend: 0x0, symName: __ZNSt3__117__compressed_pairINS_12basic_stringIcNS_11char_traitsIcEENS_9allocatorIcEEE5__repES5_EC1B8ue170006INS_18__default_init_tagESA_EEOT_OT0_, symObjAddr: 0x216C, symBinAddr: 0x10000391C, symSize: 0x3C }
  - { offsetInCU: 0x14953, offset: 0x14953, size: 0x8, addend: 0x0, symName: __ZNSt3__112basic_stringIcNS_11char_traitsIcEENS_9allocatorIcEEE14__default_initB8ue170006Ev, symObjAddr: 0x21A8, symBinAddr: 0x100003958, symSize: 0x40 }
  - { offsetInCU: 0x14979, offset: 0x14979, size: 0x8, addend: 0x0, symName: __ZNSt3__117__compressed_pairINS_12basic_stringIcNS_11char_traitsIcEENS_9allocatorIcEEE5__repES5_EC2B8ue170006INS_18__default_init_tagESA_EEOT_OT0_, symObjAddr: 0x21E8, symBinAddr: 0x100003998, symSize: 0x3C }
  - { offsetInCU: 0x149D1, offset: 0x149D1, size: 0x8, addend: 0x0, symName: __ZNSt3__122__compressed_pair_elemINS_12basic_stringIcNS_11char_traitsIcEENS_9allocatorIcEEE5__repELi0ELb0EEC2B8ue170006ENS_18__default_init_tagE, symObjAddr: 0x2224, symBinAddr: 0x1000039D4, symSize: 0x14 }
  - { offsetInCU: 0x14A05, offset: 0x14A05, size: 0x8, addend: 0x0, symName: __ZNSt3__122__compressed_pair_elemINS_9allocatorIcEELi1ELb1EEC2B8ue170006ENS_18__default_init_tagE, symObjAddr: 0x2238, symBinAddr: 0x1000039E8, symSize: 0x2C }
  - { offsetInCU: 0x14A39, offset: 0x14A39, size: 0x8, addend: 0x0, symName: __ZNSt3__19allocatorIcEC2B8ue170006Ev, symObjAddr: 0x2264, symBinAddr: 0x100003A14, symSize: 0x2C }
  - { offsetInCU: 0x14A63, offset: 0x14A63, size: 0x8, addend: 0x0, symName: __ZNSt3__116__non_trivial_ifILb1ENS_9allocatorIcEEEC2B8ue170006Ev, symObjAddr: 0x2290, symBinAddr: 0x100003A40, symSize: 0x14 }
  - { offsetInCU: 0x14A8D, offset: 0x14A8D, size: 0x8, addend: 0x0, symName: __ZNSt3__117__compressed_pairINS_12basic_stringIcNS_11char_traitsIcEENS_9allocatorIcEEE5__repES5_E5firstB8ue170006Ev, symObjAddr: 0x22A4, symBinAddr: 0x100003A54, symSize: 0x24 }
  - { offsetInCU: 0x14AB3, offset: 0x14AB3, size: 0x8, addend: 0x0, symName: __ZNSt3__122__compressed_pair_elemINS_12basic_stringIcNS_11char_traitsIcEENS_9allocatorIcEEE5__repELi0ELb0EE5__getB8ue170006Ev, symObjAddr: 0x22C8, symBinAddr: 0x100003A78, symSize: 0x14 }
  - { offsetInCU: 0x14AD9, offset: 0x14AD9, size: 0x8, addend: 0x0, symName: __ZN3MapINSt3__112basic_stringIcNS0_11char_traitsIcEENS0_9allocatorIcEEEE4UserEC2Ev, symObjAddr: 0x22DC, symBinAddr: 0x100003A8C, symSize: 0x18 }
  - { offsetInCU: 0x14B03, offset: 0x14B03, size: 0x8, addend: 0x0, symName: __ZN3MapINSt3__112basic_stringIcNS0_11char_traitsIcEENS0_9allocatorIcEEEE4UserED2Ev, symObjAddr: 0x22F4, symBinAddr: 0x100003AA4, symSize: 0x38 }
  - { offsetInCU: 0x14B2D, offset: 0x14B2D, size: 0x8, addend: 0x0, symName: __ZN3MapINSt3__112basic_stringIcNS0_11char_traitsIcEENS0_9allocatorIcEEEE4UserE7destroyEPNS8_4NodeE, symObjAddr: 0x232C, symBinAddr: 0x100003ADC, symSize: 0x8C }
  - { offsetInCU: 0x14B61, offset: 0x14B61, size: 0x8, addend: 0x0, symName: __ZN3MapINSt3__112basic_stringIcNS0_11char_traitsIcEENS0_9allocatorIcEEEE4UserE4NodeD1Ev, symObjAddr: 0x23B8, symBinAddr: 0x100003B68, symSize: 0x2C }
  - { offsetInCU: 0x14B8D, offset: 0x14B8D, size: 0x8, addend: 0x0, symName: __ZN3MapINSt3__112basic_stringIcNS0_11char_traitsIcEENS0_9allocatorIcEEEE4UserE4NodeD2Ev, symObjAddr: 0x23E4, symBinAddr: 0x100003B94, symSize: 0x38 }
  - { offsetInCU: 0x14BB9, offset: 0x14BB9, size: 0x8, addend: 0x0, symName: __ZNSt3__19basic_iosIcNS_11char_traitsIcEEEC2B8ue170006Ev, symObjAddr: 0x241C, symBinAddr: 0x100003BCC, symSize: 0x44 }
  - { offsetInCU: 0x14BE3, offset: 0x14BE3, size: 0x8, addend: 0x0, symName: __ZNSt3__113basic_istreamIcNS_11char_traitsIcEEEC2B8ue170006EPNS_15basic_streambufIcS2_EE, symObjAddr: 0x2460, symBinAddr: 0x100003C10, symSize: 0x64 }
  - { offsetInCU: 0x14C28, offset: 0x14C28, size: 0x8, addend: 0x0, symName: __ZNSt3__19basic_iosIcNS_11char_traitsIcEEE8setstateB8ue170006Ej, symObjAddr: 0x24C4, symBinAddr: 0x100003C74, symSize: 0x2C }
  - { offsetInCU: 0x14C5D, offset: 0x14C5D, size: 0x8, addend: 0x0, symName: __ZNSt3__18ios_baseC2B8ue170006Ev, symObjAddr: 0x24F0, symBinAddr: 0x100003CA0, symSize: 0x24 }
  - { offsetInCU: 0x14C87, offset: 0x14C87, size: 0x8, addend: 0x0, symName: __ZNSt3__19basic_iosIcNS_11char_traitsIcEEE4initB8ue170006EPNS_15basic_streambufIcS2_EE, symObjAddr: 0x2514, symBinAddr: 0x100003CC4, symSize: 0x44 }
  - { offsetInCU: 0x14CBE, offset: 0x14CBE, size: 0x8, addend: 0x0, symName: __ZNSt3__111char_traitsIcE3eofB8ue170006Ev, symObjAddr: 0x2558, symBinAddr: 0x100003D08, symSize: 0x8 }
  - { offsetInCU: 0x14CD2, offset: 0x14CD2, size: 0x8, addend: 0x0, symName: __ZNSt3__18ios_base8setstateB8ue170006Ej, symObjAddr: 0x2560, symBinAddr: 0x100003D10, symSize: 0x34 }
  - { offsetInCU: 0x14D09, offset: 0x14D09, size: 0x8, addend: 0x0, symName: __ZNKSt3__113basic_filebufIcNS_11char_traitsIcEEE7is_openEv, symObjAddr: 0x2594, symBinAddr: 0x100003D44, symSize: 0x24 }
  - { offsetInCU: 0x14D31, offset: 0x14D31, size: 0x8, addend: 0x0, symName: __ZNKSt3__19basic_iosIcNS_11char_traitsIcEEE5widenB8ue170006Ec, symObjAddr: 0x25B8, symBinAddr: 0x100003D68, symSize: 0x84 }
  - { offsetInCU: 0x14D9F, offset: 0x14D9F, size: 0x8, addend: 0x0, symName: __ZNKSt3__15ctypeIcE5widenB8ue170006Ec, symObjAddr: 0x2668, symBinAddr: 0x100003E18, symSize: 0x38 }
  - { offsetInCU: 0x14DD4, offset: 0x14DD4, size: 0x8, addend: 0x0, symName: __ZNSt3__114basic_iostreamIcNS_11char_traitsIcEEEC2B8ue170006EPNS_15basic_streambufIcS2_EE, symObjAddr: 0x26A0, symBinAddr: 0x100003E50, symSize: 0xAC }
  - { offsetInCU: 0x14E1A, offset: 0x14E1A, size: 0x8, addend: 0x0, symName: __ZNSt3__115basic_stringbufIcNS_11char_traitsIcEENS_9allocatorIcEEEC1B8ue170006ERKNS_12basic_stringIcS2_S4_EEj, symObjAddr: 0x274C, symBinAddr: 0x100003EFC, symSize: 0x3C }
  - { offsetInCU: 0x14E62, offset: 0x14E62, size: 0x8, addend: 0x0, symName: __ZNSt3__113basic_ostreamIcNS_11char_traitsIcEEEC2B8ue170006Ev, symObjAddr: 0x2788, symBinAddr: 0x100003F38, symSize: 0x34 }
  - { offsetInCU: 0x14E99, offset: 0x14E99, size: 0x8, addend: 0x0, symName: __ZNSt3__115basic_stringbufIcNS_11char_traitsIcEENS_9allocatorIcEEEC2B8ue170006ERKNS_12basic_stringIcS2_S4_EEj, symObjAddr: 0x27BC, symBinAddr: 0x100003F6C, symSize: 0xB4 }
  - { offsetInCU: 0x14EE1, offset: 0x14EE1, size: 0x8, addend: 0x0, symName: __ZNKSt3__112basic_stringIcNS_11char_traitsIcEENS_9allocatorIcEEE13get_allocatorB8ue170006Ev, symObjAddr: 0x2870, symBinAddr: 0x100004020, symSize: 0x24 }
  - { offsetInCU: 0x14F07, offset: 0x14F07, size: 0x8, addend: 0x0, symName: __ZNSt3__112basic_stringIcNS_11char_traitsIcEENS_9allocatorIcEEEC1B8ue170006ERKS4_, symObjAddr: 0x2894, symBinAddr: 0x100004044, symSize: 0x34 }
  - { offsetInCU: 0x14F40, offset: 0x14F40, size: 0x8, addend: 0x0, symName: __ZNKSt3__112basic_stringIcNS_11char_traitsIcEENS_9allocatorIcEEE7__allocB8ue170006Ev, symObjAddr: 0x28C8, symBinAddr: 0x100004078, symSize: 0x24 }
  - { offsetInCU: 0x14F66, offset: 0x14F66, size: 0x8, addend: 0x0, symName: __ZNKSt3__117__compressed_pairINS_12basic_stringIcNS_11char_traitsIcEENS_9allocatorIcEEE5__repES5_E6secondB8ue170006Ev, symObjAddr: 0x28EC, symBinAddr: 0x10000409C, symSize: 0x24 }
  - { offsetInCU: 0x14F8C, offset: 0x14F8C, size: 0x8, addend: 0x0, symName: __ZNKSt3__122__compressed_pair_elemINS_9allocatorIcEELi1ELb1EE5__getB8ue170006Ev, symObjAddr: 0x2910, symBinAddr: 0x1000040C0, symSize: 0x14 }
  - { offsetInCU: 0x14FB2, offset: 0x14FB2, size: 0x8, addend: 0x0, symName: __ZNSt3__112basic_stringIcNS_11char_traitsIcEENS_9allocatorIcEEEC2B8ue170006ERKS4_, symObjAddr: 0x2924, symBinAddr: 0x1000040D4, symSize: 0x48 }
  - { offsetInCU: 0x14FEB, offset: 0x14FEB, size: 0x8, addend: 0x0, symName: __ZNSt3__117__compressed_pairINS_12basic_stringIcNS_11char_traitsIcEENS_9allocatorIcEEE5__repES5_EC1B8ue170006INS_18__default_init_tagERKS5_EEOT_OT0_, symObjAddr: 0x296C, symBinAddr: 0x10000411C, symSize: 0x3C }
  - { offsetInCU: 0x15043, offset: 0x15043, size: 0x8, addend: 0x0, symName: __ZNSt3__117__compressed_pairINS_12basic_stringIcNS_11char_traitsIcEENS_9allocatorIcEEE5__repES5_EC2B8ue170006INS_18__default_init_tagERKS5_EEOT_OT0_, symObjAddr: 0x29A8, symBinAddr: 0x100004158, symSize: 0x40 }
  - { offsetInCU: 0x1509B, offset: 0x1509B, size: 0x8, addend: 0x0, symName: __ZNSt3__122__compressed_pair_elemINS_9allocatorIcEELi1ELb1EEC2B8ue170006IRKS2_vEEOT_, symObjAddr: 0x29E8, symBinAddr: 0x100004198, symSize: 0x18 }
  - { offsetInCU: 0x150FB, offset: 0x150FB, size: 0x8, addend: 0x0, symName: __ZNKSt3__113basic_istreamIcNS_11char_traitsIcEEE6sentrycvbB8ue170006Ev, symObjAddr: 0x2A00, symBinAddr: 0x1000041B0, symSize: 0x1C }
  - { offsetInCU: 0x15121, offset: 0x15121, size: 0x8, addend: 0x0, symName: __ZNSt3__112basic_stringIcNS_11char_traitsIcEENS_9allocatorIcEEE5clearB8ue170006Ev, symObjAddr: 0x2A1C, symBinAddr: 0x1000041CC, symSize: 0x78 }
  - { offsetInCU: 0x15149, offset: 0x15149, size: 0x8, addend: 0x0, symName: __ZNKSt3__19basic_iosIcNS_11char_traitsIcEEE5rdbufB8ue170006Ev, symObjAddr: 0x2A94, symBinAddr: 0x100004244, symSize: 0x24 }
  - { offsetInCU: 0x15171, offset: 0x15171, size: 0x8, addend: 0x0, symName: __ZNSt3__115basic_streambufIcNS_11char_traitsIcEEE6sbumpcB8ue170006Ev, symObjAddr: 0x2AB8, symBinAddr: 0x100004268, symSize: 0x78 }
  - { offsetInCU: 0x15197, offset: 0x15197, size: 0x8, addend: 0x0, symName: __ZNSt3__111char_traitsIcE11eq_int_typeB8ue170006Eii, symObjAddr: 0x2B30, symBinAddr: 0x1000042E0, symSize: 0x28 }
  - { offsetInCU: 0x151CA, offset: 0x151CA, size: 0x8, addend: 0x0, symName: __ZNSt3__111char_traitsIcE12to_char_typeB8ue170006Ei, symObjAddr: 0x2B58, symBinAddr: 0x100004308, symSize: 0x18 }
  - { offsetInCU: 0x151ED, offset: 0x151ED, size: 0x8, addend: 0x0, symName: __ZNSt3__111char_traitsIcE2eqEcc, symObjAddr: 0x2B70, symBinAddr: 0x100004320, symSize: 0x28 }
  - { offsetInCU: 0x1521E, offset: 0x1521E, size: 0x8, addend: 0x0, symName: __ZNKSt3__112basic_stringIcNS_11char_traitsIcEENS_9allocatorIcEEE4sizeB8ue170006Ev, symObjAddr: 0x2B98, symBinAddr: 0x100004348, symSize: 0x54 }
  - { offsetInCU: 0x15244, offset: 0x15244, size: 0x8, addend: 0x0, symName: __ZNKSt3__112basic_stringIcNS_11char_traitsIcEENS_9allocatorIcEEE8max_sizeB8ue170006Ev, symObjAddr: 0x2BEC, symBinAddr: 0x10000439C, symSize: 0xAC }
  - { offsetInCU: 0x15296, offset: 0x15296, size: 0x8, addend: 0x0, symName: __ZNSt3__18ios_base18__setstate_nothrowB8ue170006Ej, symObjAddr: 0x2C98, symBinAddr: 0x100004448, symSize: 0x64 }
  - { offsetInCU: 0x152CB, offset: 0x152CB, size: 0x8, addend: 0x0, symName: __ZNKSt3__19basic_iosIcNS_11char_traitsIcEEE10exceptionsB8ue170006Ev, symObjAddr: 0x2CFC, symBinAddr: 0x1000044AC, symSize: 0x24 }
  - { offsetInCU: 0x152F1, offset: 0x152F1, size: 0x8, addend: 0x0, symName: __ZNKSt3__112basic_stringIcNS_11char_traitsIcEENS_9allocatorIcEEE9__is_longB8ue170006Ev, symObjAddr: 0x2D20, symBinAddr: 0x1000044D0, symSize: 0x38 }
  - { offsetInCU: 0x15317, offset: 0x15317, size: 0x8, addend: 0x0, symName: __ZNSt3__111char_traitsIcE6assignB8ue170006ERcRKc, symObjAddr: 0x2D58, symBinAddr: 0x100004508, symSize: 0x24 }
  - { offsetInCU: 0x15348, offset: 0x15348, size: 0x8, addend: 0x0, symName: __ZNSt3__112basic_stringIcNS_11char_traitsIcEENS_9allocatorIcEEE18__get_long_pointerB8ue170006Ev, symObjAddr: 0x2D7C, symBinAddr: 0x10000452C, symSize: 0x28 }
  - { offsetInCU: 0x1536E, offset: 0x1536E, size: 0x8, addend: 0x0, symName: __ZNSt3__112basic_stringIcNS_11char_traitsIcEENS_9allocatorIcEEE15__set_long_sizeB8ue170006Em, symObjAddr: 0x2DA4, symBinAddr: 0x100004554, symSize: 0x38 }
  - { offsetInCU: 0x153A3, offset: 0x153A3, size: 0x8, addend: 0x0, symName: __ZNSt3__112basic_stringIcNS_11char_traitsIcEENS_9allocatorIcEEE19__get_short_pointerB8ue170006Ev, symObjAddr: 0x2DDC, symBinAddr: 0x10000458C, symSize: 0x28 }
  - { offsetInCU: 0x153C9, offset: 0x153C9, size: 0x8, addend: 0x0, symName: __ZNSt3__112basic_stringIcNS_11char_traitsIcEENS_9allocatorIcEEE16__set_short_sizeB8ue170006Em, symObjAddr: 0x2E04, symBinAddr: 0x1000045B4, symSize: 0x78 }
  - { offsetInCU: 0x153FE, offset: 0x153FE, size: 0x8, addend: 0x0, symName: __ZNKSt3__117__compressed_pairINS_12basic_stringIcNS_11char_traitsIcEENS_9allocatorIcEEE5__repES5_E5firstB8ue170006Ev, symObjAddr: 0x2E7C, symBinAddr: 0x10000462C, symSize: 0x24 }
  - { offsetInCU: 0x15424, offset: 0x15424, size: 0x8, addend: 0x0, symName: __ZNKSt3__122__compressed_pair_elemINS_12basic_stringIcNS_11char_traitsIcEENS_9allocatorIcEEE5__repELi0ELb0EE5__getB8ue170006Ev, symObjAddr: 0x2EA0, symBinAddr: 0x100004650, symSize: 0x14 }
  - { offsetInCU: 0x1544A, offset: 0x1544A, size: 0x8, addend: 0x0, symName: __ZNSt3__114pointer_traitsIPcE10pointer_toB8ue170006ERc, symObjAddr: 0x2EB4, symBinAddr: 0x100004664, symSize: 0x14 }
  - { offsetInCU: 0x1546D, offset: 0x1546D, size: 0x8, addend: 0x0, symName: __ZNKSt3__18ios_base5rdbufB8ue170006Ev, symObjAddr: 0x2EC8, symBinAddr: 0x100004678, symSize: 0x18 }
  - { offsetInCU: 0x15493, offset: 0x15493, size: 0x8, addend: 0x0, symName: __ZNSt3__111char_traitsIcE11to_int_typeB8ue170006Ec, symObjAddr: 0x2EE0, symBinAddr: 0x100004690, symSize: 0x14 }
  - { offsetInCU: 0x154B7, offset: 0x154B7, size: 0x8, addend: 0x0, symName: __ZNKSt3__112basic_stringIcNS_11char_traitsIcEENS_9allocatorIcEEE15__get_long_sizeB8ue170006Ev, symObjAddr: 0x2EF4, symBinAddr: 0x1000046A4, symSize: 0x28 }
  - { offsetInCU: 0x154DD, offset: 0x154DD, size: 0x8, addend: 0x0, symName: __ZNKSt3__112basic_stringIcNS_11char_traitsIcEENS_9allocatorIcEEE16__get_short_sizeB8ue170006Ev, symObjAddr: 0x2F1C, symBinAddr: 0x1000046CC, symSize: 0x34 }
  - { offsetInCU: 0x1550D, offset: 0x1550D, size: 0x8, addend: 0x0, symName: __ZNSt3__116allocator_traitsINS_9allocatorIcEEE8max_sizeB8ue170006IS2_vEEmRKS2_, symObjAddr: 0x2F50, symBinAddr: 0x100004700, symSize: 0x24 }
  - { offsetInCU: 0x1553B, offset: 0x1553B, size: 0x8, addend: 0x0, symName: __ZNSt3__114numeric_limitsImE3maxB8ue170006Ev, symObjAddr: 0x2F74, symBinAddr: 0x100004724, symSize: 0x14 }
  - { offsetInCU: 0x1554F, offset: 0x1554F, size: 0x8, addend: 0x0, symName: __ZNKSt3__19allocatorIcE8max_sizeB8ue170006Ev, symObjAddr: 0x2F88, symBinAddr: 0x100004738, symSize: 0x14 }
  - { offsetInCU: 0x15575, offset: 0x15575, size: 0x8, addend: 0x0, symName: __ZNSt3__123__libcpp_numeric_limitsImLb1EE3maxB8ue170006Ev, symObjAddr: 0x2F9C, symBinAddr: 0x10000474C, symSize: 0x8 }
  - { offsetInCU: 0x15589, offset: 0x15589, size: 0x8, addend: 0x0, symName: __ZNKSt3__18ios_base10exceptionsB8ue170006Ev, symObjAddr: 0x2FA4, symBinAddr: 0x100004754, symSize: 0x18 }
  - { offsetInCU: 0x155B1, offset: 0x155B1, size: 0x8, addend: 0x0, symName: __ZNK3MapINSt3__112basic_stringIcNS0_11char_traitsIcEENS0_9allocatorIcEEEE4UserE4findEPNS8_4NodeES6_, symObjAddr: 0x2FBC, symBinAddr: 0x10000476C, symSize: 0x144 }
  - { offsetInCU: 0x155F9, offset: 0x155F9, size: 0x8, addend: 0x0, symName: __ZN4UseraSERKS_, symObjAddr: 0x3100, symBinAddr: 0x1000048B0, symSize: 0x70 }
  - { offsetInCU: 0x1562A, offset: 0x1562A, size: 0x8, addend: 0x0, symName: __ZNKSt3__112basic_stringIcNS_11char_traitsIcEENS_9allocatorIcEEE4dataB8ue170006Ev, symObjAddr: 0x32F0, symBinAddr: 0x100004AA0, symSize: 0x28 }
  - { offsetInCU: 0x15650, offset: 0x15650, size: 0x8, addend: 0x0, symName: __ZNSt3__111char_traitsIcE7compareB8ue170006EPKcS3_m, symObjAddr: 0x3318, symBinAddr: 0x100004AC8, symSize: 0x34 }
  - { offsetInCU: 0x1568F, offset: 0x1568F, size: 0x8, addend: 0x0, symName: __ZNKSt3__112basic_stringIcNS_11char_traitsIcEENS_9allocatorIcEEE13__get_pointerB8ue170006Ev, symObjAddr: 0x3360, symBinAddr: 0x100004B10, symSize: 0x54 }
  - { offsetInCU: 0x156B5, offset: 0x156B5, size: 0x8, addend: 0x0, symName: __ZNKSt3__112basic_stringIcNS_11char_traitsIcEENS_9allocatorIcEEE18__get_long_pointerB8ue170006Ev, symObjAddr: 0x33B4, symBinAddr: 0x100004B64, symSize: 0x28 }
  - { offsetInCU: 0x156DB, offset: 0x156DB, size: 0x8, addend: 0x0, symName: __ZNKSt3__112basic_stringIcNS_11char_traitsIcEENS_9allocatorIcEEE19__get_short_pointerB8ue170006Ev, symObjAddr: 0x33DC, symBinAddr: 0x100004B8C, symSize: 0x28 }
  - { offsetInCU: 0x15701, offset: 0x15701, size: 0x8, addend: 0x0, symName: __ZNSt3__114pointer_traitsIPKcE10pointer_toB8ue170006ERS1_, symObjAddr: 0x3404, symBinAddr: 0x100004BB4, symSize: 0x14 }
  - { offsetInCU: 0x15724, offset: 0x15724, size: 0x8, addend: 0x0, symName: __ZNKSt3__112basic_stringIcNS_11char_traitsIcEENS_9allocatorIcEEE7compareB8ue170006ERKS5_, symObjAddr: 0x3418, symBinAddr: 0x100004BC8, symSize: 0x4C }
  - { offsetInCU: 0x1575B, offset: 0x1575B, size: 0x8, addend: 0x0, symName: __ZNKSt3__112basic_stringIcNS_11char_traitsIcEENS_9allocatorIcEEE7compareINS_17basic_string_viewIcS2_EELi0EEEiRKT_, symObjAddr: 0x3464, symBinAddr: 0x100004C14, symSize: 0x12C }
  - { offsetInCU: 0x157DE, offset: 0x157DE, size: 0x8, addend: 0x0, symName: __ZNKSt3__112basic_stringIcNS_11char_traitsIcEENS_9allocatorIcEEEcvNS_17basic_string_viewIcS2_EEB8ue170006Ev, symObjAddr: 0x3590, symBinAddr: 0x100004D40, symSize: 0x50 }
  - { offsetInCU: 0x15804, offset: 0x15804, size: 0x8, addend: 0x0, symName: __ZNKSt3__117basic_string_viewIcNS_11char_traitsIcEEE4sizeB8ue170006Ev, symObjAddr: 0x35E0, symBinAddr: 0x100004D90, symSize: 0x18 }
  - { offsetInCU: 0x1582A, offset: 0x1582A, size: 0x8, addend: 0x0, symName: __ZNKSt3__117basic_string_viewIcNS_11char_traitsIcEEE4dataB8ue170006Ev, symObjAddr: 0x35F8, symBinAddr: 0x100004DA8, symSize: 0x18 }
  - { offsetInCU: 0x15864, offset: 0x15864, size: 0x8, addend: 0x0, symName: __ZNKSt3__16__lessIvvEclB8ue170006ImmEEbRKT_RKT0_, symObjAddr: 0x3690, symBinAddr: 0x100004E40, symSize: 0x34 }
  - { offsetInCU: 0x158B8, offset: 0x158B8, size: 0x8, addend: 0x0, symName: __ZNSt3__117basic_string_viewIcNS_11char_traitsIcEEEC1B8ue170006EPKcm, symObjAddr: 0x36C4, symBinAddr: 0x100004E74, symSize: 0x3C }
  - { offsetInCU: 0x15900, offset: 0x15900, size: 0x8, addend: 0x0, symName: __ZNSt3__117basic_string_viewIcNS_11char_traitsIcEEEC2B8ue170006EPKcm, symObjAddr: 0x3700, symBinAddr: 0x100004EB0, symSize: 0x2C }
  - { offsetInCU: 0x1594D, offset: 0x1594D, size: 0x8, addend: 0x0, symName: __ZN5StackI5EmailEaSERKS1_, symObjAddr: 0x372C, symBinAddr: 0x100004EDC, symSize: 0x34 }
  - { offsetInCU: 0x1597E, offset: 0x1597E, size: 0x8, addend: 0x0, symName: __ZNSt3__16vectorI5EmailNS_9allocatorIS1_EEEaSB8ue170006ERKS4_, symObjAddr: 0x3760, symBinAddr: 0x100004F10, symSize: 0x68 }
  - { offsetInCU: 0x159B5, offset: 0x159B5, size: 0x8, addend: 0x0, symName: __ZNSt3__16vectorI5EmailNS_9allocatorIS1_EEE19__copy_assign_allocB8ue170006ERKS4_, symObjAddr: 0x37C8, symBinAddr: 0x100004F78, symSize: 0x2C }
  - { offsetInCU: 0x159EA, offset: 0x159EA, size: 0x8, addend: 0x0, symName: __ZNSt3__16vectorI5EmailNS_9allocatorIS1_EEE6assignIPS1_Li0EEEvT_S7_, symObjAddr: 0x37F4, symBinAddr: 0x100004FA4, symSize: 0x5C }
  - { offsetInCU: 0x15A3F, offset: 0x15A3F, size: 0x8, addend: 0x0, symName: __ZNSt3__16vectorI5EmailNS_9allocatorIS1_EEE19__copy_assign_allocB8ue170006ERKS4_NS_17integral_constantIbLb0EEE, symObjAddr: 0x3850, symBinAddr: 0x100005000, symSize: 0x14 }
  - { offsetInCU: 0x15A7D, offset: 0x15A7D, size: 0x8, addend: 0x0, symName: __ZNSt3__16vectorI5EmailNS_9allocatorIS1_EEE18__assign_with_sizeB8ue170006IPS1_S6_EEvT_T0_l, symObjAddr: 0x3864, symBinAddr: 0x100005014, symSize: 0x164 }
  - { offsetInCU: 0x15B2D, offset: 0x15B2D, size: 0x8, addend: 0x0, symName: __ZNSt3__16vectorI5EmailNS_9allocatorIS1_EEE18__construct_at_endIPS1_S6_EEvT_T0_m, symObjAddr: 0x3A68, symBinAddr: 0x100005218, symSize: 0x8C }
  - { offsetInCU: 0x15BA3, offset: 0x15BA3, size: 0x8, addend: 0x0, symName: __ZNSt3__16vectorI5EmailNS_9allocatorIS1_EEE17__destruct_at_endB8ue170006EPS1_, symObjAddr: 0x3B38, symBinAddr: 0x1000052E8, symSize: 0x4C }
  - { offsetInCU: 0x15BE7, offset: 0x15BE7, size: 0x8, addend: 0x0, symName: __ZNSt3__16vectorI5EmailNS_9allocatorIS1_EEE13__vdeallocateEv, symObjAddr: 0x3B84, symBinAddr: 0x100005334, symSize: 0x94 }
  - { offsetInCU: 0x15C0F, offset: 0x15C0F, size: 0x8, addend: 0x0, symName: __ZNSt3__16vectorI5EmailNS_9allocatorIS1_EEE11__vallocateB8ue170006Em, symObjAddr: 0x3C18, symBinAddr: 0x1000053C8, symSize: 0xB4 }
  - { offsetInCU: 0x15C53, offset: 0x15C53, size: 0x8, addend: 0x0, symName: __ZNKSt3__16vectorI5EmailNS_9allocatorIS1_EEE11__recommendB8ue170006Em, symObjAddr: 0x3CCC, symBinAddr: 0x10000547C, symSize: 0xB4 }
  - { offsetInCU: 0x15CC1, offset: 0x15CC1, size: 0x8, addend: 0x0, symName: __ZNSt3__16vectorI5EmailNS_9allocatorIS1_EEE21_ConstructTransactionC1B8ue170006ERS4_m, symObjAddr: 0x3DFC, symBinAddr: 0x1000055AC, symSize: 0x3C }
  - { offsetInCU: 0x15D09, offset: 0x15D09, size: 0x8, addend: 0x0, symName: __ZNSt3__16vectorI5EmailNS_9allocatorIS1_EEE21_ConstructTransactionD1B8ue170006Ev, symObjAddr: 0x3EB8, symBinAddr: 0x100005668, symSize: 0x2C }
  - { offsetInCU: 0x15D33, offset: 0x15D33, size: 0x8, addend: 0x0, symName: __ZNSt3__16vectorI5EmailNS_9allocatorIS1_EEE21_ConstructTransactionC2B8ue170006ERS4_m, symObjAddr: 0x3EE4, symBinAddr: 0x100005694, symSize: 0x4C }
  - { offsetInCU: 0x15D99, offset: 0x15D99, size: 0x8, addend: 0x0, symName: __ZNSt3__14pairIP5EmailS2_EC1B8ue170006IS2_S2_LPv0EEEOT_OT0_, symObjAddr: 0x411C, symBinAddr: 0x1000058CC, symSize: 0x3C }
  - { offsetInCU: 0x15DF7, offset: 0x15DF7, size: 0x8, addend: 0x0, symName: __ZNSt3__14pairIP5EmailS2_EC2B8ue170006IS2_S2_LPv0EEEOT_OT0_, symObjAddr: 0x4158, symBinAddr: 0x100005908, symSize: 0x34 }
  - { offsetInCU: 0x15E55, offset: 0x15E55, size: 0x8, addend: 0x0, symName: __ZNSt3__129_AllocatorDestroyRangeReverseINS_9allocatorI5EmailEEPS2_EC1B8ue170006ERS3_RS4_S7_, symObjAddr: 0x41D8, symBinAddr: 0x100005988, symSize: 0x44 }
  - { offsetInCU: 0x15EAC, offset: 0x15EAC, size: 0x8, addend: 0x0, symName: __ZNSt3__116allocator_traitsINS_9allocatorI5EmailEEE9constructB8ue170006IS2_JRS2_EvEEvRS3_PT_DpOT0_, symObjAddr: 0x421C, symBinAddr: 0x1000059CC, symSize: 0x34 }
  - { offsetInCU: 0x15F03, offset: 0x15F03, size: 0x8, addend: 0x0, symName: __ZNSt3__128__exception_guard_exceptionsINS_29_AllocatorDestroyRangeReverseINS_9allocatorI5EmailEEPS3_EEE10__completeB8ue170006Ev, symObjAddr: 0x4250, symBinAddr: 0x100005A00, symSize: 0x1C }
  - { offsetInCU: 0x15F29, offset: 0x15F29, size: 0x8, addend: 0x0, symName: __ZNSt3__128__exception_guard_exceptionsINS_29_AllocatorDestroyRangeReverseINS_9allocatorI5EmailEEPS3_EEED1B8ue170006Ev, symObjAddr: 0x426C, symBinAddr: 0x100005A1C, symSize: 0x2C }
  - { offsetInCU: 0x15F53, offset: 0x15F53, size: 0x8, addend: 0x0, symName: __ZNSt3__128__exception_guard_exceptionsINS_29_AllocatorDestroyRangeReverseINS_9allocatorI5EmailEEPS3_EEEC1B8ue170006ES6_, symObjAddr: 0x4298, symBinAddr: 0x100005A48, symSize: 0x34 }
  - { offsetInCU: 0x15F8C, offset: 0x15F8C, size: 0x8, addend: 0x0, symName: __ZNSt3__128__exception_guard_exceptionsINS_29_AllocatorDestroyRangeReverseINS_9allocatorI5EmailEEPS3_EEEC2B8ue170006ES6_, symObjAddr: 0x42CC, symBinAddr: 0x100005A7C, symSize: 0x30 }
  - { offsetInCU: 0x15FC5, offset: 0x15FC5, size: 0x8, addend: 0x0, symName: __ZNSt3__129_AllocatorDestroyRangeReverseINS_9allocatorI5EmailEEPS2_EC2B8ue170006ERS3_RS4_S7_, symObjAddr: 0x42FC, symBinAddr: 0x100005AAC, symSize: 0x38 }
  - { offsetInCU: 0x1601C, offset: 0x1601C, size: 0x8, addend: 0x0, symName: __ZNSt3__19allocatorI5EmailE9constructB8ue170006IS1_JRS1_EEEvPT_DpOT0_, symObjAddr: 0x4334, symBinAddr: 0x100005AE4, symSize: 0x30 }
  - { offsetInCU: 0x16072, offset: 0x16072, size: 0x8, addend: 0x0, symName: __ZN5EmailC1ERKS_, symObjAddr: 0x4364, symBinAddr: 0x100005B14, symSize: 0x34 }
  - { offsetInCU: 0x160A7, offset: 0x160A7, size: 0x8, addend: 0x0, symName: __ZN5EmailC2ERKS_, symObjAddr: 0x4398, symBinAddr: 0x100005B48, symSize: 0xE0 }
  - { offsetInCU: 0x160DC, offset: 0x160DC, size: 0x8, addend: 0x0, symName: __ZNSt3__128__exception_guard_exceptionsINS_29_AllocatorDestroyRangeReverseINS_9allocatorI5EmailEEPS3_EEED2B8ue170006Ev, symObjAddr: 0x4478, symBinAddr: 0x100005C28, symSize: 0x50 }
  - { offsetInCU: 0x16106, offset: 0x16106, size: 0x8, addend: 0x0, symName: __ZNKSt3__129_AllocatorDestroyRangeReverseINS_9allocatorI5EmailEEPS2_EclB8ue170006Ev, symObjAddr: 0x44C8, symBinAddr: 0x100005C78, symSize: 0x68 }
  - { offsetInCU: 0x1612C, offset: 0x1612C, size: 0x8, addend: 0x0, symName: __ZNSt3__116reverse_iteratorIP5EmailEC1B8ue170006ES2_, symObjAddr: 0x45A0, symBinAddr: 0x100005D50, symSize: 0x34 }
  - { offsetInCU: 0x16164, offset: 0x16164, size: 0x8, addend: 0x0, symName: __ZNSt3__116reverse_iteratorIP5EmailEppB8ue170006Ev, symObjAddr: 0x4640, symBinAddr: 0x100005DF0, symSize: 0x20 }
  - { offsetInCU: 0x1618A, offset: 0x1618A, size: 0x8, addend: 0x0, symName: __ZNKSt3__116reverse_iteratorIP5EmailE4baseB8ue170006Ev, symObjAddr: 0x4660, symBinAddr: 0x100005E10, symSize: 0x18 }
  - { offsetInCU: 0x161B5, offset: 0x161B5, size: 0x8, addend: 0x0, symName: __ZNSt3__119__to_address_helperINS_16reverse_iteratorIP5EmailEEvE6__callB8ue170006ERKS4_, symObjAddr: 0x4678, symBinAddr: 0x100005E28, symSize: 0x38 }
  - { offsetInCU: 0x161D8, offset: 0x161D8, size: 0x8, addend: 0x0, symName: __ZNKSt3__116reverse_iteratorIP5EmailEptB8ue170006Ev, symObjAddr: 0x46B0, symBinAddr: 0x100005E60, symSize: 0x24 }
  - { offsetInCU: 0x161FE, offset: 0x161FE, size: 0x8, addend: 0x0, symName: __ZNKSt3__116reverse_iteratorIP5EmailEdeB8ue170006Ev, symObjAddr: 0x46D4, symBinAddr: 0x100005E84, symSize: 0x28 }
  - { offsetInCU: 0x16232, offset: 0x16232, size: 0x8, addend: 0x0, symName: __ZNSt3__116reverse_iteratorIP5EmailEC2B8ue170006ES2_, symObjAddr: 0x46FC, symBinAddr: 0x100005EAC, symSize: 0x28 }
  - { offsetInCU: 0x1626A, offset: 0x1626A, size: 0x8, addend: 0x0, symName: __ZNSt3__118__unwrap_iter_implIP5EmailLb1EE8__unwrapB8ue170006ES2_, symObjAddr: 0x4724, symBinAddr: 0x100005ED4, symSize: 0x24 }
  - { offsetInCU: 0x1628D, offset: 0x1628D, size: 0x8, addend: 0x0, symName: __ZNSt3__118__unwrap_iter_implIP5EmailLb1EE8__rewrapB8ue170006ES2_S2_, symObjAddr: 0x4748, symBinAddr: 0x100005EF8, symSize: 0x58 }
  - { offsetInCU: 0x162BE, offset: 0x162BE, size: 0x8, addend: 0x0, symName: __ZNSt3__16vectorI5EmailNS_9allocatorIS1_EEE21_ConstructTransactionD2B8ue170006Ev, symObjAddr: 0x47A0, symBinAddr: 0x100005F50, symSize: 0x20 }
  - { offsetInCU: 0x162F2, offset: 0x162F2, size: 0x8, addend: 0x0, symName: __ZNKSt3__111__copy_loopINS_17_ClassicAlgPolicyEEclB8ue170006IP5EmailS5_S5_EENS_4pairIT_T1_EES7_T0_S8_, symObjAddr: 0x48B8, symBinAddr: 0x100006068, symSize: 0x88 }
  - { offsetInCU: 0x1635D, offset: 0x1635D, size: 0x8, addend: 0x0, symName: __ZN5EmailaSERKS_, symObjAddr: 0x496C, symBinAddr: 0x10000611C, symSize: 0x70 }
  - { offsetInCU: 0x1638E, offset: 0x1638E, size: 0x8, addend: 0x0, symName: __ZNKSt3__16vectorI5EmailNS_9allocatorIS1_EEE17__annotate_shrinkB8ue170006Em, symObjAddr: 0x49DC, symBinAddr: 0x10000618C, symSize: 0xD0 }
  - { offsetInCU: 0x163C3, offset: 0x163C3, size: 0x8, addend: 0x0, symName: __ZNSt3__16vectorI5EmailNS_9allocatorIS1_EEE5clearB8ue170006Ev, symObjAddr: 0x4AAC, symBinAddr: 0x10000625C, symSize: 0x44 }
  - { offsetInCU: 0x163F8, offset: 0x163F8, size: 0x8, addend: 0x0, symName: __ZNSt3__16vectorI5EmailNS_9allocatorIS1_EEE9__end_capB8ue170006Ev, symObjAddr: 0x4AF0, symBinAddr: 0x1000062A0, symSize: 0x28 }
  - { offsetInCU: 0x1641E, offset: 0x1641E, size: 0x8, addend: 0x0, symName: __ZNSt3__117__compressed_pairIP5EmailNS_9allocatorIS1_EEE5firstB8ue170006Ev, symObjAddr: 0x4B18, symBinAddr: 0x1000062C8, symSize: 0x24 }
  - { offsetInCU: 0x16444, offset: 0x16444, size: 0x8, addend: 0x0, symName: __ZNSt3__122__compressed_pair_elemIP5EmailLi0ELb0EE5__getB8ue170006Ev, symObjAddr: 0x4B3C, symBinAddr: 0x1000062EC, symSize: 0x14 }
  - { offsetInCU: 0x1646A, offset: 0x1646A, size: 0x8, addend: 0x0, symName: __ZNKSt3__16vectorI5EmailNS_9allocatorIS1_EEE8max_sizeEv, symObjAddr: 0x4B50, symBinAddr: 0x100006300, symSize: 0x60 }
  - { offsetInCU: 0x16492, offset: 0x16492, size: 0x8, addend: 0x0, symName: __ZNKSt3__16vectorI5EmailNS_9allocatorIS1_EEE20__throw_length_errorB8ue170006Ev, symObjAddr: 0x4BB0, symBinAddr: 0x100006360, symSize: 0x1C }
  - { offsetInCU: 0x164B8, offset: 0x164B8, size: 0x8, addend: 0x0, symName: __ZNKSt3__16vectorI5EmailNS_9allocatorIS1_EEE14__annotate_newB8ue170006Em, symObjAddr: 0x4C0C, symBinAddr: 0x1000063BC, symSize: 0xC8 }
  - { offsetInCU: 0x164F7, offset: 0x164F7, size: 0x8, addend: 0x0, symName: __ZNSt3__116allocator_traitsINS_9allocatorI5EmailEEE8max_sizeB8ue170006IS3_vEEmRKS3_, symObjAddr: 0x4CD4, symBinAddr: 0x100006484, symSize: 0x24 }
  - { offsetInCU: 0x16525, offset: 0x16525, size: 0x8, addend: 0x0, symName: __ZNKSt3__16vectorI5EmailNS_9allocatorIS1_EEE7__allocB8ue170006Ev, symObjAddr: 0x4CF8, symBinAddr: 0x1000064A8, symSize: 0x28 }
  - { offsetInCU: 0x1654B, offset: 0x1654B, size: 0x8, addend: 0x0, symName: __ZNKSt3__19allocatorI5EmailE8max_sizeB8ue170006Ev, symObjAddr: 0x4D20, symBinAddr: 0x1000064D0, symSize: 0x18 }
  - { offsetInCU: 0x16571, offset: 0x16571, size: 0x8, addend: 0x0, symName: __ZNKSt3__117__compressed_pairIP5EmailNS_9allocatorIS1_EEE6secondB8ue170006Ev, symObjAddr: 0x4D38, symBinAddr: 0x1000064E8, symSize: 0x24 }
  - { offsetInCU: 0x16597, offset: 0x16597, size: 0x8, addend: 0x0, symName: __ZNKSt3__122__compressed_pair_elemINS_9allocatorI5EmailEELi1ELb1EE5__getB8ue170006Ev, symObjAddr: 0x4D5C, symBinAddr: 0x10000650C, symSize: 0x14 }
  - { offsetInCU: 0x165BD, offset: 0x165BD, size: 0x8, addend: 0x0, symName: __ZNSt12length_errorC1B8ue170006EPKc, symObjAddr: 0x4DD4, symBinAddr: 0x100006584, symSize: 0x34 }
  - { offsetInCU: 0x165F5, offset: 0x165F5, size: 0x8, addend: 0x0, symName: __ZNSt12length_errorC2B8ue170006EPKc, symObjAddr: 0x4E08, symBinAddr: 0x1000065B8, symSize: 0x4C }
  - { offsetInCU: 0x1662D, offset: 0x1662D, size: 0x8, addend: 0x0, symName: __ZNSt3__19allocatorI5EmailE8allocateB8ue170006Em, symObjAddr: 0x4E54, symBinAddr: 0x100006604, symSize: 0x5C }
  - { offsetInCU: 0x16661, offset: 0x16661, size: 0x8, addend: 0x0, symName: __ZN3MapINSt3__112basic_stringIcNS0_11char_traitsIcEENS0_9allocatorIcEEEE4UserE6insertEPNS8_4NodeES6_S7_, symObjAddr: 0x503C, symBinAddr: 0x1000067EC, symSize: 0x2B8 }
  - { offsetInCU: 0x166B3, offset: 0x166B3, size: 0x8, addend: 0x0, symName: __ZN4UserC1ERKS_, symObjAddr: 0x52F4, symBinAddr: 0x100006AA4, symSize: 0x34 }
  - { offsetInCU: 0x166E8, offset: 0x166E8, size: 0x8, addend: 0x0, symName: __ZN3MapINSt3__112basic_stringIcNS0_11char_traitsIcEENS0_9allocatorIcEEEE4UserE4NodeC1ES6_S7_, symObjAddr: 0x5328, symBinAddr: 0x100006AD8, symSize: 0x3C }
  - { offsetInCU: 0x16730, offset: 0x16730, size: 0x8, addend: 0x0, symName: __ZN3MapINSt3__112basic_stringIcNS0_11char_traitsIcEENS0_9allocatorIcEEEE4UserE4NodeC2ES6_S7_, symObjAddr: 0x5394, symBinAddr: 0x100006B44, symSize: 0x7C }
  - { offsetInCU: 0x16778, offset: 0x16778, size: 0x8, addend: 0x0, symName: __ZN4UserC2ERKS_, symObjAddr: 0x5410, symBinAddr: 0x100006BC0, symSize: 0xE0 }
  - { offsetInCU: 0x167AD, offset: 0x167AD, size: 0x8, addend: 0x0, symName: __ZN5StackI5EmailEC1ERKS1_, symObjAddr: 0x54F0, symBinAddr: 0x100006CA0, symSize: 0x34 }
  - { offsetInCU: 0x167E2, offset: 0x167E2, size: 0x8, addend: 0x0, symName: __ZN5StackI5EmailEC2ERKS1_, symObjAddr: 0x5524, symBinAddr: 0x100006CD4, symSize: 0x34 }
  - { offsetInCU: 0x16817, offset: 0x16817, size: 0x8, addend: 0x0, symName: __ZNSt3__16vectorI5EmailNS_9allocatorIS1_EEEC1ERKS4_, symObjAddr: 0x5558, symBinAddr: 0x100006D08, symSize: 0x34 }
  - { offsetInCU: 0x16852, offset: 0x16852, size: 0x8, addend: 0x0, symName: __ZNSt3__16vectorI5EmailNS_9allocatorIS1_EEEC2ERKS4_, symObjAddr: 0x558C, symBinAddr: 0x100006D3C, symSize: 0x94 }
  - { offsetInCU: 0x1688D, offset: 0x1688D, size: 0x8, addend: 0x0, symName: __ZNSt3__116allocator_traitsINS_9allocatorI5EmailEEE37select_on_container_copy_constructionB8ue170006IS3_vvEES3_RKS3_, symObjAddr: 0x5620, symBinAddr: 0x100006DD0, symSize: 0x10 }
  - { offsetInCU: 0x168C6, offset: 0x168C6, size: 0x8, addend: 0x0, symName: __ZNSt3__117__compressed_pairIP5EmailNS_9allocatorIS1_EEEC1B8ue170006IDnS4_EEOT_OT0_, symObjAddr: 0x5630, symBinAddr: 0x100006DE0, symSize: 0x3C }
  - { offsetInCU: 0x1691E, offset: 0x1691E, size: 0x8, addend: 0x0, symName: __ZNSt3__16vectorI5EmailNS_9allocatorIS1_EEE16__init_with_sizeB8ue170006IPS1_S6_EEvT_T0_m, symObjAddr: 0x566C, symBinAddr: 0x100006E1C, symSize: 0xB8 }
  - { offsetInCU: 0x16992, offset: 0x16992, size: 0x8, addend: 0x0, symName: __ZNSt3__117__compressed_pairIP5EmailNS_9allocatorIS1_EEEC2B8ue170006IDnS4_EEOT_OT0_, symObjAddr: 0x5724, symBinAddr: 0x100006ED4, symSize: 0x44 }
  - { offsetInCU: 0x169EA, offset: 0x169EA, size: 0x8, addend: 0x0, symName: __ZNSt3__122__compressed_pair_elemIP5EmailLi0ELb0EEC2B8ue170006IDnvEEOT_, symObjAddr: 0x5768, symBinAddr: 0x100006F18, symSize: 0x1C }
  - { offsetInCU: 0x16A2C, offset: 0x16A2C, size: 0x8, addend: 0x0, symName: __ZNSt3__122__compressed_pair_elemINS_9allocatorI5EmailEELi1ELb1EEC2B8ue170006IS3_vEEOT_, symObjAddr: 0x5784, symBinAddr: 0x100006F34, symSize: 0x18 }
  - { offsetInCU: 0x16A6E, offset: 0x16A6E, size: 0x8, addend: 0x0, symName: __ZNSt3__128__exception_guard_exceptionsINS_6vectorI5EmailNS_9allocatorIS2_EEE16__destroy_vectorEE10__completeB8ue170006Ev, symObjAddr: 0x57DC, symBinAddr: 0x100006F8C, symSize: 0x1C }
  - { offsetInCU: 0x16A94, offset: 0x16A94, size: 0x8, addend: 0x0, symName: __ZNSt3__128__exception_guard_exceptionsINS_6vectorI5EmailNS_9allocatorIS2_EEE16__destroy_vectorEED1B8ue170006Ev, symObjAddr: 0x57F8, symBinAddr: 0x100006FA8, symSize: 0x2C }
  - { offsetInCU: 0x16ABE, offset: 0x16ABE, size: 0x8, addend: 0x0, symName: __ZNSt3__128__exception_guard_exceptionsINS_6vectorI5EmailNS_9allocatorIS2_EEE16__destroy_vectorEEC1B8ue170006ES6_, symObjAddr: 0x5824, symBinAddr: 0x100006FD4, symSize: 0x34 }
  - { offsetInCU: 0x16AF6, offset: 0x16AF6, size: 0x8, addend: 0x0, symName: __ZNSt3__128__exception_guard_exceptionsINS_6vectorI5EmailNS_9allocatorIS2_EEE16__destroy_vectorEEC2B8ue170006ES6_, symObjAddr: 0x5858, symBinAddr: 0x100007008, symSize: 0x24 }
  - { offsetInCU: 0x16B2E, offset: 0x16B2E, size: 0x8, addend: 0x0, symName: __ZNSt3__128__exception_guard_exceptionsINS_6vectorI5EmailNS_9allocatorIS2_EEE16__destroy_vectorEED2B8ue170006Ev, symObjAddr: 0x587C, symBinAddr: 0x10000702C, symSize: 0x48 }
  - { offsetInCU: 0x16B58, offset: 0x16B58, size: 0x8, addend: 0x0, symName: __ZNSt3__111char_traitsIcE6lengthB8ue170006EPKc, symObjAddr: 0x5AB0, symBinAddr: 0x100007260, symSize: 0x34 }
  - { offsetInCU: 0x16B99, offset: 0x16B99, size: 0x8, addend: 0x0, symName: __ZNKSt3__113basic_ostreamIcNS_11char_traitsIcEEE6sentrycvbB8ue170006Ev, symObjAddr: 0x5AE4, symBinAddr: 0x100007294, symSize: 0x1C }
  - { offsetInCU: 0x16BBF, offset: 0x16BBF, size: 0x8, addend: 0x0, symName: __ZNSt3__119ostreambuf_iteratorIcNS_11char_traitsIcEEEC1B8ue170006ERNS_13basic_ostreamIcS2_EE, symObjAddr: 0x5D40, symBinAddr: 0x1000074F0, symSize: 0x34 }
  - { offsetInCU: 0x16BF7, offset: 0x16BF7, size: 0x8, addend: 0x0, symName: __ZNKSt3__18ios_base5flagsB8ue170006Ev, symObjAddr: 0x5D74, symBinAddr: 0x100007524, symSize: 0x18 }
  - { offsetInCU: 0x16C1F, offset: 0x16C1F, size: 0x8, addend: 0x0, symName: __ZNKSt3__19basic_iosIcNS_11char_traitsIcEEE4fillB8ue170006Ev, symObjAddr: 0x5D8C, symBinAddr: 0x10000753C, symSize: 0x64 }
  - { offsetInCU: 0x16C47, offset: 0x16C47, size: 0x8, addend: 0x0, symName: __ZNKSt3__119ostreambuf_iteratorIcNS_11char_traitsIcEEE6failedB8ue170006Ev, symObjAddr: 0x5DF0, symBinAddr: 0x1000075A0, symSize: 0x24 }
  - { offsetInCU: 0x16C6D, offset: 0x16C6D, size: 0x8, addend: 0x0, symName: __ZNKSt3__18ios_base5widthB8ue170006Ev, symObjAddr: 0x5E14, symBinAddr: 0x1000075C4, symSize: 0x18 }
  - { offsetInCU: 0x16C95, offset: 0x16C95, size: 0x8, addend: 0x0, symName: __ZNSt3__115basic_streambufIcNS_11char_traitsIcEEE5sputnB8ue170006EPKcl, symObjAddr: 0x5E2C, symBinAddr: 0x1000075DC, symSize: 0x3C }
  - { offsetInCU: 0x16CD7, offset: 0x16CD7, size: 0x8, addend: 0x0, symName: __ZNSt3__112basic_stringIcNS_11char_traitsIcEENS_9allocatorIcEEEC1B8ue170006Emc, symObjAddr: 0x5E68, symBinAddr: 0x100007618, symSize: 0x3C }
  - { offsetInCU: 0x16D1F, offset: 0x16D1F, size: 0x8, addend: 0x0, symName: __ZNSt3__112basic_stringIcNS_11char_traitsIcEENS_9allocatorIcEEE4dataB8ue170006Ev, symObjAddr: 0x5EA4, symBinAddr: 0x100007654, symSize: 0x28 }
  - { offsetInCU: 0x16D45, offset: 0x16D45, size: 0x8, addend: 0x0, symName: __ZNSt3__18ios_base5widthB8ue170006El, symObjAddr: 0x5ECC, symBinAddr: 0x10000767C, symSize: 0x2C }
  - { offsetInCU: 0x16D8B, offset: 0x16D8B, size: 0x8, addend: 0x0, symName: __ZNSt3__112basic_stringIcNS_11char_traitsIcEENS_9allocatorIcEEEC2B8ue170006Emc, symObjAddr: 0x5EF8, symBinAddr: 0x1000076A8, symSize: 0x4C }
  - { offsetInCU: 0x16DD3, offset: 0x16DD3, size: 0x8, addend: 0x0, symName: __ZNSt3__112basic_stringIcNS_11char_traitsIcEENS_9allocatorIcEEE13__get_pointerB8ue170006Ev, symObjAddr: 0x5F58, symBinAddr: 0x100007708, symSize: 0x54 }
  - { offsetInCU: 0x16DF9, offset: 0x16DF9, size: 0x8, addend: 0x0, symName: __ZNSt3__119ostreambuf_iteratorIcNS_11char_traitsIcEEEC2B8ue170006ERNS_13basic_ostreamIcS2_EE, symObjAddr: 0x5FAC, symBinAddr: 0x10000775C, symSize: 0x54 }
  - { offsetInCU: 0x16E31, offset: 0x16E31, size: 0x8, addend: 0x0, symName: __ZNSt3__112basic_stringIcNS_11char_traitsIcEENS_9allocatorIcEEEC2B8ue170006ILi0EEEPKc, symObjAddr: 0x6024, symBinAddr: 0x1000077D4, symSize: 0x58 }
  - { offsetInCU: 0x16E70, offset: 0x16E70, size: 0x8, addend: 0x0, symName: __ZNKSt3__18ios_base4failB8ue170006Ev, symObjAddr: 0x607C, symBinAddr: 0x10000782C, symSize: 0x28 }
  - { offsetInCU: 0x4B09, offset: 0x1BB4D, size: 0x8, addend: 0x0, symName: __ZN5EmailC2ERKNSt3__112basic_stringIcNS0_11char_traitsIcEENS0_9allocatorIcEEEES8_S8_S8_, symObjAddr: 0x0, symBinAddr: 0x100007854, symSize: 0xE0 }
  - { offsetInCU: 0x4B6D, offset: 0x1BBB1, size: 0x8, addend: 0x0, symName: __ZN5EmailC1ERKNSt3__112basic_stringIcNS0_11char_traitsIcEENS0_9allocatorIcEEEES8_S8_S8_, symObjAddr: 0xE0, symBinAddr: 0x100007934, symSize: 0x4C }
  - { offsetInCU: 0x4BD1, offset: 0x1BC15, size: 0x8, addend: 0x0, symName: __ZN5EmailC2Ev, symObjAddr: 0x12C, symBinAddr: 0x100007980, symSize: 0x50 }
  - { offsetInCU: 0x4BFD, offset: 0x1BC41, size: 0x8, addend: 0x0, symName: __ZN5EmailC1Ev, symObjAddr: 0x1A8, symBinAddr: 0x1000079D0, symSize: 0x2C }
  - { offsetInCU: 0x4C29, offset: 0x1BC6D, size: 0x8, addend: 0x0, symName: __ZNK5Email9getSenderEv, symObjAddr: 0x1D4, symBinAddr: 0x1000079FC, symSize: 0x14 }
  - { offsetInCU: 0x4C51, offset: 0x1BC95, size: 0x8, addend: 0x0, symName: __ZNK5Email11getReceiverEv, symObjAddr: 0x1E8, symBinAddr: 0x100007A10, symSize: 0x18 }
  - { offsetInCU: 0x4C79, offset: 0x1BCBD, size: 0x8, addend: 0x0, symName: __ZNK5Email10getSubjectEv, symObjAddr: 0x200, symBinAddr: 0x100007A28, symSize: 0x18 }
  - { offsetInCU: 0x4CA1, offset: 0x1BCE5, size: 0x8, addend: 0x0, symName: __ZNK5Email10getContentEv, symObjAddr: 0x218, symBinAddr: 0x100007A40, symSize: 0x18 }
  - { offsetInCU: 0x4CC9, offset: 0x1BD0D, size: 0x8, addend: 0x0, symName: __ZN5Email9setSenderERKNSt3__112basic_stringIcNS0_11char_traitsIcEENS0_9allocatorIcEEEE, symObjAddr: 0x230, symBinAddr: 0x100007A58, symSize: 0x2C }
  - { offsetInCU: 0x4CFF, offset: 0x1BD43, size: 0x8, addend: 0x0, symName: __ZN5Email11setReceiverERKNSt3__112basic_stringIcNS0_11char_traitsIcEENS0_9allocatorIcEEEE, symObjAddr: 0x25C, symBinAddr: 0x100007A84, symSize: 0x30 }
  - { offsetInCU: 0x4D35, offset: 0x1BD79, size: 0x8, addend: 0x0, symName: __ZN5Email10setSubjectERKNSt3__112basic_stringIcNS0_11char_traitsIcEENS0_9allocatorIcEEEE, symObjAddr: 0x28C, symBinAddr: 0x100007AB4, symSize: 0x30 }
  - { offsetInCU: 0x4D6B, offset: 0x1BDAF, size: 0x8, addend: 0x0, symName: __ZN5Email10setContentERKNSt3__112basic_stringIcNS0_11char_traitsIcEENS0_9allocatorIcEEEE, symObjAddr: 0x2BC, symBinAddr: 0x100007AE4, symSize: 0x30 }
  - { offsetInCU: 0xB8F2, offset: 0x276E1, size: 0x8, addend: 0x0, symName: __ZNSt3__1plB8ue170006IcNS_11char_traitsIcEENS_9allocatorIcEEEENS_12basic_stringIT_T0_T1_EEOS9_PKS6_, symObjAddr: 0x898, symBinAddr: 0x10000834C, symSize: 0x40 }
  - { offsetInCU: 0xC7C8, offset: 0x285B7, size: 0x8, addend: 0x0, symName: __ZNSt3__110__str_findB8ue170006IcmNS_11char_traitsIcEELm18446744073709551615EEET0_PKT_S3_S6_S3_S3_, symObjAddr: 0x20A8, symBinAddr: 0x100009038, symSize: 0xE4 }
  - { offsetInCU: 0xC86F, offset: 0x2865E, size: 0x8, addend: 0x0, symName: __ZNSt3__118__search_substringB8ue170006IcNS_11char_traitsIcEEEEPKT_S5_S5_S5_S5_, symObjAddr: 0x2208, symBinAddr: 0x10000911C, symSize: 0x154 }
  - { offsetInCU: 0xC909, offset: 0x286F8, size: 0x8, addend: 0x0, symName: __ZNSt3__118__constexpr_memchrB8ue170006IKccEEPT_S3_T0_m, symObjAddr: 0x2400, symBinAddr: 0x1000092E0, symSize: 0x40 }
  - { offsetInCU: 0xC97F, offset: 0x2876E, size: 0x8, addend: 0x0, symName: __ZNSt3__142__uninitialized_allocator_move_if_noexceptB8ue170006INS_9allocatorI5EmailEENS_16reverse_iteratorIPS2_EES6_S6_EET2_RT_T0_T1_S7_, symObjAddr: 0x35C8, symBinAddr: 0x10000998C, symSize: 0x12C }
  - { offsetInCU: 0xCA1F, offset: 0x2880E, size: 0x8, addend: 0x0, symName: __ZNSt3__14swapB8ue170006IP5EmailEENS_9enable_ifIXaasr21is_move_constructibleIT_EE5valuesr18is_move_assignableIS4_EE5valueEvE4typeERS4_S7_, symObjAddr: 0x3740, symBinAddr: 0x100009AB8, symSize: 0x3C }
  - { offsetInCU: 0xCA70, offset: 0x2885F, size: 0x8, addend: 0x0, symName: __ZNSt3__122__make_exception_guardB8ue170006INS_29_AllocatorDestroyRangeReverseINS_9allocatorI5EmailEENS_16reverse_iteratorIPS3_EEEEEENS_28__exception_guard_exceptionsIT_EESA_, symObjAddr: 0x388C, symBinAddr: 0x100009AF4, symSize: 0x4C }
  - { offsetInCU: 0xCAA6, offset: 0x28895, size: 0x8, addend: 0x0, symName: __ZNSt3__119__allocator_destroyB8ue170006INS_9allocatorI5EmailEENS_16reverse_iteratorINS4_IPS2_EEEES7_EEvRT_T0_T1_, symObjAddr: 0x3D1C, symBinAddr: 0x100009E74, symSize: 0x70 }
  - { offsetInCU: 0xCB0B, offset: 0x288FA, size: 0x8, addend: 0x0, symName: __ZNSt3__1neB8ue170006INS_16reverse_iteratorIP5EmailEES4_EEbRKNS1_IT_EERKNS1_IT0_EE, symObjAddr: 0x3DC8, symBinAddr: 0x100009F20, symSize: 0x60 }
  - { offsetInCU: 0xCB57, offset: 0x28946, size: 0x8, addend: 0x0, symName: __ZNSt3__112__to_addressB8ue170006INS_16reverse_iteratorINS1_IP5EmailEEEEvEEu7__decayIDTclsr19__to_address_helperIT_EE6__callclsr3stdE7declvalIRKS6_EEEEES8_, symObjAddr: 0x3E54, symBinAddr: 0x100009F80, symSize: 0x24 }
  - { offsetInCU: 0xD35F, offset: 0x2914E, size: 0x8, addend: 0x0, symName: __ZNSt3__16vectorI5EmailNS_9allocatorIS1_EEE26__swap_out_circular_bufferERNS_14__split_bufferIS1_RS3_EE, symObjAddr: 0x2BF8, symBinAddr: 0x100009618, symSize: 0x110 }
  - { offsetInCU: 0xF597, offset: 0x2B386, size: 0x8, addend: 0x0, symName: __ZN12EmailManagerC2Ev, symObjAddr: 0x0, symBinAddr: 0x100007B14, symSize: 0x14 }
  - { offsetInCU: 0xF5C3, offset: 0x2B3B2, size: 0x8, addend: 0x0, symName: __ZN12EmailManagerC1Ev, symObjAddr: 0x14, symBinAddr: 0x100007B28, symSize: 0x2C }
  - { offsetInCU: 0xF5EF, offset: 0x2B3DE, size: 0x8, addend: 0x0, symName: __ZN12EmailManager6isSpamER5Email, symObjAddr: 0x40, symBinAddr: 0x100007B54, symSize: 0x38C }
  - { offsetInCU: 0xF680, offset: 0x2B46F, size: 0x8, addend: 0x0, symName: __ZNKSt3__112basic_stringIcNS_11char_traitsIcEENS_9allocatorIcEEE4findB8ue170006ERKS5_m, symObjAddr: 0x400, symBinAddr: 0x100007EE0, symSize: 0x78 }
  - { offsetInCU: 0xF6C6, offset: 0x2B4B5, size: 0x8, addend: 0x0, symName: __ZN12EmailManager9saveEmailER4UserR5Email8FileType, symObjAddr: 0x478, symBinAddr: 0x100007F58, symSize: 0x3F4 }
  - { offsetInCU: 0xF749, offset: 0x2B538, size: 0x8, addend: 0x0, symName: __ZNSt3__112basic_stringIcNS_11char_traitsIcEENS_9allocatorIcEEEaSB8ue170006EOS5_, symObjAddr: 0x8D8, symBinAddr: 0x10000838C, symSize: 0x34 }
  - { offsetInCU: 0xF77E, offset: 0x2B56D, size: 0x8, addend: 0x0, symName: __ZN5StackI5EmailE4pushERKS0_, symObjAddr: 0x90C, symBinAddr: 0x1000083C0, symSize: 0x2C }
  - { offsetInCU: 0xF80A, offset: 0x2B5F9, size: 0x8, addend: 0x0, symName: __ZNSt3__114basic_ofstreamIcNS_11char_traitsIcEEEC1ERKNS_12basic_stringIcS2_NS_9allocatorIcEEEEj, symObjAddr: 0x938, symBinAddr: 0x1000083EC, symSize: 0x16C }
  - { offsetInCU: 0xF854, offset: 0x2B643, size: 0x8, addend: 0x0, symName: __ZNSt3__114basic_ofstreamIcNS_11char_traitsIcEEE5closeEv, symObjAddr: 0xB38, symBinAddr: 0x100008558, symSize: 0x58 }
  - { offsetInCU: 0xF881, offset: 0x2B670, size: 0x8, addend: 0x0, symName: __ZNSt3__114basic_ofstreamIcNS_11char_traitsIcEEED1Ev, symObjAddr: 0xB90, symBinAddr: 0x1000085B0, symSize: 0x40 }
  - { offsetInCU: 0xF8AE, offset: 0x2B69D, size: 0x8, addend: 0x0, symName: __ZN12EmailManager10viewEmailsER4User8FileType, symObjAddr: 0xBD0, symBinAddr: 0x1000085F0, symSize: 0x548 }
  - { offsetInCU: 0xF989, offset: 0x2B778, size: 0x8, addend: 0x0, symName: __ZNSt3__112basic_stringIcNS_11char_traitsIcEENS_9allocatorIcEEEaSB8ue170006EPKc, symObjAddr: 0x1118, symBinAddr: 0x100008B38, symSize: 0x2C }
  - { offsetInCU: 0xF9BE, offset: 0x2B7AD, size: 0x8, addend: 0x0, symName: __ZNK5StackI5EmailE7isEmptyEv, symObjAddr: 0x1144, symBinAddr: 0x100008B64, symSize: 0x28 }
  - { offsetInCU: 0xF9E5, offset: 0x2B7D4, size: 0x8, addend: 0x0, symName: __ZNK5StackI5EmailE7getSizeEv, symObjAddr: 0x116C, symBinAddr: 0x100008B8C, symSize: 0x24 }
  - { offsetInCU: 0xFA0C, offset: 0x2B7FB, size: 0x8, addend: 0x0, symName: __ZNK5StackI5EmailE10getEmailAtEi, symObjAddr: 0x1190, symBinAddr: 0x100008BB0, symSize: 0xD8 }
  - { offsetInCU: 0xFA41, offset: 0x2B830, size: 0x8, addend: 0x0, symName: __ZN12EmailManager10parseEmailENSt3__112basic_stringIcNS0_11char_traitsIcEENS0_9allocatorIcEEEE, symObjAddr: 0x12F0, symBinAddr: 0x100008C88, symSize: 0xF8 }
  - { offsetInCU: 0xFB5F, offset: 0x2B94E, size: 0x8, addend: 0x0, symName: __ZNSt3__114basic_ofstreamIcNS_11char_traitsIcEEED2Ev, symObjAddr: 0x1770, symBinAddr: 0x100008D80, symSize: 0x64 }
  - { offsetInCU: 0xFB99, offset: 0x2B988, size: 0x8, addend: 0x0, symName: __ZTv0_n24_NSt3__114basic_ofstreamIcNS_11char_traitsIcEEED1Ev, symObjAddr: 0x17D4, symBinAddr: 0x100008DE4, symSize: 0x28 }
  - { offsetInCU: 0xFBB5, offset: 0x2B9A4, size: 0x8, addend: 0x0, symName: __ZNSt3__112basic_stringIcNS_11char_traitsIcEENS_9allocatorIcEEE13__move_assignB8ue170006ERS5_NS_17integral_constantIbLb1EEE, symObjAddr: 0x1B34, symBinAddr: 0x100008E0C, symSize: 0xC8 }
  - { offsetInCU: 0xFBF8, offset: 0x2B9E7, size: 0x8, addend: 0x0, symName: __ZNSt3__116allocator_traitsINS_9allocatorIcEEE10deallocateB8ue170006ERS2_Pcm, symObjAddr: 0x1C34, symBinAddr: 0x100008ED4, symSize: 0x34 }
  - { offsetInCU: 0xFC3A, offset: 0x2BA29, size: 0x8, addend: 0x0, symName: __ZNSt3__112basic_stringIcNS_11char_traitsIcEENS_9allocatorIcEEE7__allocB8ue170006Ev, symObjAddr: 0x1C68, symBinAddr: 0x100008F08, symSize: 0x24 }
  - { offsetInCU: 0xFC60, offset: 0x2BA4F, size: 0x8, addend: 0x0, symName: __ZNKSt3__112basic_stringIcNS_11char_traitsIcEENS_9allocatorIcEEE14__get_long_capB8ue170006Ev, symObjAddr: 0x1CB4, symBinAddr: 0x100008F2C, symSize: 0x30 }
  - { offsetInCU: 0xFC86, offset: 0x2BA75, size: 0x8, addend: 0x0, symName: __ZNSt3__112basic_stringIcNS_11char_traitsIcEENS_9allocatorIcEEE19__move_assign_allocB8ue170006ERS5_, symObjAddr: 0x1CE4, symBinAddr: 0x100008F5C, symSize: 0x2C }
  - { offsetInCU: 0xFCBB, offset: 0x2BAAA, size: 0x8, addend: 0x0, symName: __ZNSt3__19allocatorIcE10deallocateB8ue170006EPcm, symObjAddr: 0x1E0C, symBinAddr: 0x100008F88, symSize: 0x40 }
  - { offsetInCU: 0xFCFD, offset: 0x2BAEC, size: 0x8, addend: 0x0, symName: __ZNSt3__117__compressed_pairINS_12basic_stringIcNS_11char_traitsIcEENS_9allocatorIcEEE5__repES5_E6secondB8ue170006Ev, symObjAddr: 0x1F74, symBinAddr: 0x100008FC8, symSize: 0x24 }
  - { offsetInCU: 0xFD23, offset: 0x2BB12, size: 0x8, addend: 0x0, symName: __ZNSt3__122__compressed_pair_elemINS_9allocatorIcEELi1ELb1EE5__getB8ue170006Ev, symObjAddr: 0x1F98, symBinAddr: 0x100008FEC, symSize: 0x14 }
  - { offsetInCU: 0xFD49, offset: 0x2BB38, size: 0x8, addend: 0x0, symName: __ZNSt3__112basic_stringIcNS_11char_traitsIcEENS_9allocatorIcEEE19__move_assign_allocB8ue170006ERS5_NS_17integral_constantIbLb1EEE, symObjAddr: 0x1FAC, symBinAddr: 0x100009000, symSize: 0x38 }
  - { offsetInCU: 0xFD8A, offset: 0x2BB79, size: 0x8, addend: 0x0, symName: __ZNSt3__111char_traitsIcE4findB8ue170006EPKcmRS2_, symObjAddr: 0x235C, symBinAddr: 0x100009270, symSize: 0x70 }
  - { offsetInCU: 0xFDC9, offset: 0x2BBB8, size: 0x8, addend: 0x0, symName: __ZNSt3__112basic_stringIcNS_11char_traitsIcEENS_9allocatorIcEEEC1B8ue170006EOS5_, symObjAddr: 0x2568, symBinAddr: 0x100009320, symSize: 0x34 }
  - { offsetInCU: 0xFE02, offset: 0x2BBF1, size: 0x8, addend: 0x0, symName: __ZNSt3__112basic_stringIcNS_11char_traitsIcEENS_9allocatorIcEEEC2B8ue170006EOS5_, symObjAddr: 0x259C, symBinAddr: 0x100009354, symSize: 0x48 }
  - { offsetInCU: 0xFE3B, offset: 0x2BC2A, size: 0x8, addend: 0x0, symName: __ZNSt3__16vectorI5EmailNS_9allocatorIS1_EEE9push_backB8ue170006ERKS1_, symObjAddr: 0x25E4, symBinAddr: 0x10000939C, symSize: 0x6C }
  - { offsetInCU: 0xFE72, offset: 0x2BC61, size: 0x8, addend: 0x0, symName: __ZNSt3__16vectorI5EmailNS_9allocatorIS1_EEE22__construct_one_at_endB8ue170006IJRKS1_EEEvDpOT_, symObjAddr: 0x2678, symBinAddr: 0x100009408, symSize: 0x90 }
  - { offsetInCU: 0xFEC1, offset: 0x2BCB0, size: 0x8, addend: 0x0, symName: __ZNSt3__16vectorI5EmailNS_9allocatorIS1_EEE21__push_back_slow_pathIRKS1_EEvOT_, symObjAddr: 0x2708, symBinAddr: 0x100009498, symSize: 0xD8 }
  - { offsetInCU: 0xFF38, offset: 0x2BD27, size: 0x8, addend: 0x0, symName: __ZNSt3__116allocator_traitsINS_9allocatorI5EmailEEE9constructB8ue170006IS2_JRKS2_EvEEvRS3_PT_DpOT0_, symObjAddr: 0x2854, symBinAddr: 0x100009570, symSize: 0x34 }
  - { offsetInCU: 0xFF8F, offset: 0x2BD7E, size: 0x8, addend: 0x0, symName: __ZNSt3__19allocatorI5EmailE9constructB8ue170006IS1_JRKS1_EEEvPT_DpOT0_, symObjAddr: 0x293C, symBinAddr: 0x1000095A4, symSize: 0x30 }
  - { offsetInCU: 0xFFE5, offset: 0x2BDD4, size: 0x8, addend: 0x0, symName: __ZNSt3__114__split_bufferI5EmailRNS_9allocatorIS1_EEEC1EmmS4_, symObjAddr: 0x2BB4, symBinAddr: 0x1000095D4, symSize: 0x44 }
  - { offsetInCU: 0x1003B, offset: 0x2BE2A, size: 0x8, addend: 0x0, symName: __ZNSt3__114__split_bufferI5EmailRNS_9allocatorIS1_EEED1Ev, symObjAddr: 0x2D08, symBinAddr: 0x100009728, symSize: 0x2C }
  - { offsetInCU: 0x10071, offset: 0x2BE60, size: 0x8, addend: 0x0, symName: __ZNSt3__114__split_bufferI5EmailRNS_9allocatorIS1_EEEC2EmmS4_, symObjAddr: 0x3120, symBinAddr: 0x100009754, symSize: 0xE0 }
  - { offsetInCU: 0x100E9, offset: 0x2BED8, size: 0x8, addend: 0x0, symName: __ZNSt3__117__compressed_pairIP5EmailRNS_9allocatorIS1_EEEC1B8ue170006IDnS5_EEOT_OT0_, symObjAddr: 0x3200, symBinAddr: 0x100009834, symSize: 0x3C }
  - { offsetInCU: 0x10141, offset: 0x2BF30, size: 0x8, addend: 0x0, symName: __ZNSt3__114__split_bufferI5EmailRNS_9allocatorIS1_EEE7__allocB8ue170006Ev, symObjAddr: 0x327C, symBinAddr: 0x100009870, symSize: 0x28 }
  - { offsetInCU: 0x10167, offset: 0x2BF56, size: 0x8, addend: 0x0, symName: __ZNSt3__114__split_bufferI5EmailRNS_9allocatorIS1_EEE9__end_capB8ue170006Ev, symObjAddr: 0x32A4, symBinAddr: 0x100009898, symSize: 0x28 }
  - { offsetInCU: 0x1018D, offset: 0x2BF7C, size: 0x8, addend: 0x0, symName: __ZNSt3__117__compressed_pairIP5EmailRNS_9allocatorIS1_EEEC2B8ue170006IDnS5_EEOT_OT0_, symObjAddr: 0x32CC, symBinAddr: 0x1000098C0, symSize: 0x48 }
  - { offsetInCU: 0x101E5, offset: 0x2BFD4, size: 0x8, addend: 0x0, symName: __ZNSt3__122__compressed_pair_elemIRNS_9allocatorI5EmailEELi1ELb0EEC2B8ue170006IS4_vEEOT_, symObjAddr: 0x3330, symBinAddr: 0x100009908, symSize: 0x20 }
  - { offsetInCU: 0x10227, offset: 0x2C016, size: 0x8, addend: 0x0, symName: __ZNSt3__117__compressed_pairIP5EmailRNS_9allocatorIS1_EEE6secondB8ue170006Ev, symObjAddr: 0x3490, symBinAddr: 0x100009928, symSize: 0x28 }
  - { offsetInCU: 0x1024D, offset: 0x2C03C, size: 0x8, addend: 0x0, symName: __ZNSt3__122__compressed_pair_elemIRNS_9allocatorI5EmailEELi1ELb0EE5__getB8ue170006Ev, symObjAddr: 0x34B8, symBinAddr: 0x100009950, symSize: 0x18 }
  - { offsetInCU: 0x10273, offset: 0x2C062, size: 0x8, addend: 0x0, symName: __ZNSt3__117__compressed_pairIP5EmailRNS_9allocatorIS1_EEE5firstB8ue170006Ev, symObjAddr: 0x34D0, symBinAddr: 0x100009968, symSize: 0x24 }
  - { offsetInCU: 0x10299, offset: 0x2C088, size: 0x8, addend: 0x0, symName: __ZNSt3__129_AllocatorDestroyRangeReverseINS_9allocatorI5EmailEENS_16reverse_iteratorIPS2_EEEC1B8ue170006ERS3_RS6_S9_, symObjAddr: 0x38D8, symBinAddr: 0x100009B40, symSize: 0x44 }
  - { offsetInCU: 0x102F5, offset: 0x2C0E4, size: 0x8, addend: 0x0, symName: __ZNSt3__116allocator_traitsINS_9allocatorI5EmailEEE9constructB8ue170006IS2_JS2_EvEEvRS3_PT_DpOT0_, symObjAddr: 0x3964, symBinAddr: 0x100009B84, symSize: 0x34 }
  - { offsetInCU: 0x1034C, offset: 0x2C13B, size: 0x8, addend: 0x0, symName: __ZNSt3__128__exception_guard_exceptionsINS_29_AllocatorDestroyRangeReverseINS_9allocatorI5EmailEENS_16reverse_iteratorIPS3_EEEEE10__completeB8ue170006Ev, symObjAddr: 0x3A04, symBinAddr: 0x100009BB8, symSize: 0x1C }
  - { offsetInCU: 0x10372, offset: 0x2C161, size: 0x8, addend: 0x0, symName: __ZNSt3__128__exception_guard_exceptionsINS_29_AllocatorDestroyRangeReverseINS_9allocatorI5EmailEENS_16reverse_iteratorIPS3_EEEEED1B8ue170006Ev, symObjAddr: 0x3A20, symBinAddr: 0x100009BD4, symSize: 0x2C }
  - { offsetInCU: 0x1039C, offset: 0x2C18B, size: 0x8, addend: 0x0, symName: __ZNSt3__128__exception_guard_exceptionsINS_29_AllocatorDestroyRangeReverseINS_9allocatorI5EmailEENS_16reverse_iteratorIPS3_EEEEEC1B8ue170006ES8_, symObjAddr: 0x3A4C, symBinAddr: 0x100009C00, symSize: 0x34 }
  - { offsetInCU: 0x103D5, offset: 0x2C1C4, size: 0x8, addend: 0x0, symName: __ZNSt3__128__exception_guard_exceptionsINS_29_AllocatorDestroyRangeReverseINS_9allocatorI5EmailEENS_16reverse_iteratorIPS3_EEEEEC2B8ue170006ES8_, symObjAddr: 0x3A80, symBinAddr: 0x100009C34, symSize: 0x30 }
  - { offsetInCU: 0x1040E, offset: 0x2C1FD, size: 0x8, addend: 0x0, symName: __ZNSt3__129_AllocatorDestroyRangeReverseINS_9allocatorI5EmailEENS_16reverse_iteratorIPS2_EEEC2B8ue170006ERS3_RS6_S9_, symObjAddr: 0x3AB0, symBinAddr: 0x100009C64, symSize: 0x38 }
  - { offsetInCU: 0x10465, offset: 0x2C254, size: 0x8, addend: 0x0, symName: __ZNSt3__19allocatorI5EmailE9constructB8ue170006IS1_JS1_EEEvPT_DpOT0_, symObjAddr: 0x3AE8, symBinAddr: 0x100009C9C, symSize: 0x30 }
  - { offsetInCU: 0x104BB, offset: 0x2C2AA, size: 0x8, addend: 0x0, symName: __ZN5EmailC1EOS_, symObjAddr: 0x3B18, symBinAddr: 0x100009CCC, symSize: 0x34 }
  - { offsetInCU: 0x104F0, offset: 0x2C2DF, size: 0x8, addend: 0x0, symName: __ZN5EmailC2EOS_, symObjAddr: 0x3B4C, symBinAddr: 0x100009D00, symSize: 0x70 }
  - { offsetInCU: 0x10525, offset: 0x2C314, size: 0x8, addend: 0x0, symName: __ZNSt3__128__exception_guard_exceptionsINS_29_AllocatorDestroyRangeReverseINS_9allocatorI5EmailEENS_16reverse_iteratorIPS3_EEEEED2B8ue170006Ev, symObjAddr: 0x3C18, symBinAddr: 0x100009D70, symSize: 0x50 }
  - { offsetInCU: 0x1054F, offset: 0x2C33E, size: 0x8, addend: 0x0, symName: __ZNKSt3__129_AllocatorDestroyRangeReverseINS_9allocatorI5EmailEENS_16reverse_iteratorIPS2_EEEclB8ue170006Ev, symObjAddr: 0x3C68, symBinAddr: 0x100009DC0, symSize: 0xB4 }
  - { offsetInCU: 0x10576, offset: 0x2C365, size: 0x8, addend: 0x0, symName: __ZNSt3__116reverse_iteratorINS0_IP5EmailEEEC1B8ue170006ES3_, symObjAddr: 0x3D8C, symBinAddr: 0x100009EE4, symSize: 0x3C }
  - { offsetInCU: 0x105AE, offset: 0x2C39D, size: 0x8, addend: 0x0, symName: __ZNSt3__116reverse_iteratorINS0_IP5EmailEEEppB8ue170006Ev, symObjAddr: 0x3E78, symBinAddr: 0x100009FA4, symSize: 0x30 }
  - { offsetInCU: 0x105D4, offset: 0x2C3C3, size: 0x8, addend: 0x0, symName: __ZNKSt3__116reverse_iteratorINS0_IP5EmailEEE4baseB8ue170006Ev, symObjAddr: 0x3EA8, symBinAddr: 0x100009FD4, symSize: 0x24 }
  - { offsetInCU: 0x105FF, offset: 0x2C3EE, size: 0x8, addend: 0x0, symName: __ZNSt3__119__to_address_helperINS_16reverse_iteratorINS1_IP5EmailEEEEvE6__callB8ue170006ERKS5_, symObjAddr: 0x3EF4, symBinAddr: 0x100009FF8, symSize: 0x38 }
  - { offsetInCU: 0x10622, offset: 0x2C411, size: 0x8, addend: 0x0, symName: __ZNKSt3__116reverse_iteratorINS0_IP5EmailEEEptB8ue170006Ev, symObjAddr: 0x3F2C, symBinAddr: 0x10000A030, symSize: 0x24 }
  - { offsetInCU: 0x10648, offset: 0x2C437, size: 0x8, addend: 0x0, symName: __ZNKSt3__116reverse_iteratorINS0_IP5EmailEEEdeB8ue170006Ev, symObjAddr: 0x3F50, symBinAddr: 0x10000A054, symSize: 0x34 }
  - { offsetInCU: 0x1067C, offset: 0x2C46B, size: 0x8, addend: 0x0, symName: __ZNSt3__116reverse_iteratorIP5EmailEmmB8ue170006Ev, symObjAddr: 0x3F84, symBinAddr: 0x10000A088, symSize: 0x20 }
  - { offsetInCU: 0x106A2, offset: 0x2C491, size: 0x8, addend: 0x0, symName: __ZNSt3__116reverse_iteratorINS0_IP5EmailEEEC2B8ue170006ES3_, symObjAddr: 0x3FA4, symBinAddr: 0x10000A0A8, symSize: 0x2C }
  - { offsetInCU: 0x106DA, offset: 0x2C4C9, size: 0x8, addend: 0x0, symName: __ZNSt3__114__split_bufferI5EmailRNS_9allocatorIS1_EEED2Ev, symObjAddr: 0x3FF8, symBinAddr: 0x10000A0D4, symSize: 0x8C }
  - { offsetInCU: 0x10706, offset: 0x2C4F5, size: 0x8, addend: 0x0, symName: __ZNSt3__114__split_bufferI5EmailRNS_9allocatorIS1_EEE5clearB8ue170006Ev, symObjAddr: 0x4084, symBinAddr: 0x10000A160, symSize: 0x28 }
  - { offsetInCU: 0x1072C, offset: 0x2C51B, size: 0x8, addend: 0x0, symName: __ZNKSt3__114__split_bufferI5EmailRNS_9allocatorIS1_EEE8capacityB8ue170006Ev, symObjAddr: 0x40E0, symBinAddr: 0x10000A188, symSize: 0x40 }
  - { offsetInCU: 0x10752, offset: 0x2C541, size: 0x8, addend: 0x0, symName: __ZNSt3__114__split_bufferI5EmailRNS_9allocatorIS1_EEE17__destruct_at_endB8ue170006EPS1_, symObjAddr: 0x4120, symBinAddr: 0x10000A1C8, symSize: 0x2C }
  - { offsetInCU: 0x10786, offset: 0x2C575, size: 0x8, addend: 0x0, symName: __ZNSt3__114__split_bufferI5EmailRNS_9allocatorIS1_EEE17__destruct_at_endB8ue170006EPS1_NS_17integral_constantIbLb0EEE, symObjAddr: 0x414C, symBinAddr: 0x10000A1F4, symSize: 0x80 }
  - { offsetInCU: 0x107C6, offset: 0x2C5B5, size: 0x8, addend: 0x0, symName: __ZNKSt3__114__split_bufferI5EmailRNS_9allocatorIS1_EEE9__end_capB8ue170006Ev, symObjAddr: 0x4210, symBinAddr: 0x10000A274, symSize: 0x28 }
  - { offsetInCU: 0x107EC, offset: 0x2C5DB, size: 0x8, addend: 0x0, symName: __ZNKSt3__117__compressed_pairIP5EmailRNS_9allocatorIS1_EEE5firstB8ue170006Ev, symObjAddr: 0x4238, symBinAddr: 0x10000A29C, symSize: 0x24 }
  - { offsetInCU: 0x10812, offset: 0x2C601, size: 0x8, addend: 0x0, symName: __ZNSt3__113basic_ostreamIcNS_11char_traitsIcEEEC2B8ue170006EPNS_15basic_streambufIcS2_EE, symObjAddr: 0x42A0, symBinAddr: 0x10000A2C0, symSize: 0x60 }
  - { offsetInCU: 0x10857, offset: 0x2C646, size: 0x8, addend: 0x0, symName: __ZNSt3__113basic_filebufIcNS_11char_traitsIcEEE4openERKNS_12basic_stringIcS2_NS_9allocatorIcEEEEj, symObjAddr: 0x4300, symBinAddr: 0x10000A320, symSize: 0x44 }
  - { offsetInCU: 0x1089B, offset: 0x2C68A, size: 0x8, addend: 0x0, symName: __ZNKSt3__112basic_stringIcNS_11char_traitsIcEENS_9allocatorIcEEE5c_strB8ue170006Ev, symObjAddr: 0x43E0, symBinAddr: 0x10000A364, symSize: 0x24 }
  - { offsetInCU: 0x108DF, offset: 0x2C6CE, size: 0x8, addend: 0x0, symName: __ZNKSt3__16vectorI5EmailNS_9allocatorIS1_EEE5emptyB8ue170006Ev, symObjAddr: 0x4C8C, symBinAddr: 0x10000A388, symSize: 0x28 }
  - { offsetInCU: 0x10905, offset: 0x2C6F4, size: 0x8, addend: 0x0, symName: __ZNSt12out_of_rangeC1B8ue170006EPKc, symObjAddr: 0x4CB4, symBinAddr: 0x10000A3B0, symSize: 0x34 }
  - { offsetInCU: 0x1093D, offset: 0x2C72C, size: 0x8, addend: 0x0, symName: __ZNKSt3__16vectorI5EmailNS_9allocatorIS1_EEEixB8ue170006Em, symObjAddr: 0x4CE8, symBinAddr: 0x10000A3E4, symSize: 0x2C }
  - { offsetInCU: 0x10974, offset: 0x2C763, size: 0x8, addend: 0x0, symName: __ZNSt12out_of_rangeC2B8ue170006EPKc, symObjAddr: 0x4D14, symBinAddr: 0x10000A410, symSize: 0x4C }
  - { offsetInCU: 0x5A66, offset: 0x322A2, size: 0x8, addend: 0x0, symName: __ZN4UserC2ERKNSt3__112basic_stringIcNS0_11char_traitsIcEENS0_9allocatorIcEEEE, symObjAddr: 0x0, symBinAddr: 0x10000A45C, symSize: 0x58 }
  - { offsetInCU: 0x5AA0, offset: 0x322DC, size: 0x8, addend: 0x0, symName: __ZN5StackI5EmailEC1Ev, symObjAddr: 0x58, symBinAddr: 0x10000A4B4, symSize: 0x2C }
  - { offsetInCU: 0x5ACA, offset: 0x32306, size: 0x8, addend: 0x0, symName: __ZN4UserC1ERKNSt3__112basic_stringIcNS0_11char_traitsIcEENS0_9allocatorIcEEEE, symObjAddr: 0x84, symBinAddr: 0x10000A4E0, symSize: 0x34 }
  - { offsetInCU: 0x5B04, offset: 0x32340, size: 0x8, addend: 0x0, symName: __ZN4UserC2Ev, symObjAddr: 0xB8, symBinAddr: 0x10000A514, symSize: 0x58 }
  - { offsetInCU: 0x5B35, offset: 0x32371, size: 0x8, addend: 0x0, symName: __ZN4UserC1Ev, symObjAddr: 0x144, symBinAddr: 0x10000A56C, symSize: 0x2C }
  - { offsetInCU: 0x5B61, offset: 0x3239D, size: 0x8, addend: 0x0, symName: __ZNK4User8getEmailEv, symObjAddr: 0x170, symBinAddr: 0x10000A598, symSize: 0x14 }
  - { offsetInCU: 0x5B89, offset: 0x323C5, size: 0x8, addend: 0x0, symName: __ZN4User8setEmailERKNSt3__112basic_stringIcNS0_11char_traitsIcEENS0_9allocatorIcEEEE, symObjAddr: 0x184, symBinAddr: 0x10000A5AC, symSize: 0x2C }
  - { offsetInCU: 0x5BBF, offset: 0x323FB, size: 0x8, addend: 0x0, symName: __ZN4User7getNameEv, symObjAddr: 0x1B0, symBinAddr: 0x10000A5D8, symSize: 0x5C }
  - { offsetInCU: 0x5BF5, offset: 0x32431, size: 0x8, addend: 0x0, symName: __ZNKSt3__112basic_stringIcNS_11char_traitsIcEENS_9allocatorIcEEE4findB8ue170006EPKcm, symObjAddr: 0x20C, symBinAddr: 0x10000A634, symSize: 0x74 }
  - { offsetInCU: 0x5C3B, offset: 0x32477, size: 0x8, addend: 0x0, symName: __ZNKSt3__112basic_stringIcNS_11char_traitsIcEENS_9allocatorIcEEE6substrB8ue170006Emm, symObjAddr: 0x280, symBinAddr: 0x10000A6A8, symSize: 0x68 }
  - { offsetInCU: 0x5C7F, offset: 0x324BB, size: 0x8, addend: 0x0, symName: __ZN4User8getInboxEv, symObjAddr: 0x2E8, symBinAddr: 0x10000A710, symSize: 0x18 }
  - { offsetInCU: 0x5CA7, offset: 0x324E3, size: 0x8, addend: 0x0, symName: __ZN4User9getOutboxEv, symObjAddr: 0x300, symBinAddr: 0x10000A728, symSize: 0x18 }
  - { offsetInCU: 0x5CCE, offset: 0x3250A, size: 0x8, addend: 0x0, symName: __ZN4User11getTrashcanEv, symObjAddr: 0x318, symBinAddr: 0x10000A740, symSize: 0x18 }
  - { offsetInCU: 0x5CF6, offset: 0x32532, size: 0x8, addend: 0x0, symName: __ZN5StackI5EmailEC2Ev, symObjAddr: 0x330, symBinAddr: 0x10000A758, symSize: 0x2C }
  - { offsetInCU: 0x5D20, offset: 0x3255C, size: 0x8, addend: 0x0, symName: __ZNSt3__16vectorI5EmailNS_9allocatorIS1_EEEC1B8ue170006Ev, symObjAddr: 0x35C, symBinAddr: 0x10000A784, symSize: 0x2C }
  - { offsetInCU: 0x5D4A, offset: 0x32586, size: 0x8, addend: 0x0, symName: __ZNSt3__16vectorI5EmailNS_9allocatorIS1_EEEC2B8ue170006Ev, symObjAddr: 0x388, symBinAddr: 0x10000A7B0, symSize: 0x4C }
  - { offsetInCU: 0x5D7E, offset: 0x325BA, size: 0x8, addend: 0x0, symName: __ZNSt3__117__compressed_pairIP5EmailNS_9allocatorIS1_EEEC1B8ue170006IDnNS_18__default_init_tagEEEOT_OT0_, symObjAddr: 0x3D4, symBinAddr: 0x10000A7FC, symSize: 0x3C }
  - { offsetInCU: 0x5DD6, offset: 0x32612, size: 0x8, addend: 0x0, symName: __ZNSt3__117__compressed_pairIP5EmailNS_9allocatorIS1_EEEC2B8ue170006IDnNS_18__default_init_tagEEEOT_OT0_, symObjAddr: 0x41C, symBinAddr: 0x10000A838, symSize: 0x40 }
  - { offsetInCU: 0x5E2E, offset: 0x3266A, size: 0x8, addend: 0x0, symName: __ZNSt3__122__compressed_pair_elemINS_9allocatorI5EmailEELi1ELb1EEC2B8ue170006ENS_18__default_init_tagE, symObjAddr: 0x478, symBinAddr: 0x10000A878, symSize: 0x2C }
  - { offsetInCU: 0x5E62, offset: 0x3269E, size: 0x8, addend: 0x0, symName: __ZNSt3__19allocatorI5EmailEC2B8ue170006Ev, symObjAddr: 0x4A4, symBinAddr: 0x10000A8A4, symSize: 0x2C }
  - { offsetInCU: 0x5E8C, offset: 0x326C8, size: 0x8, addend: 0x0, symName: __ZNSt3__116__non_trivial_ifILb1ENS_9allocatorI5EmailEEEC2B8ue170006Ev, symObjAddr: 0x4D0, symBinAddr: 0x10000A8D0, symSize: 0x14 }
  - { offsetInCU: 0x5EB6, offset: 0x326F2, size: 0x8, addend: 0x0, symName: __ZNSt3__19allocatorIcEC1B8ue170006Ev, symObjAddr: 0xBBC, symBinAddr: 0x10000A8E4, symSize: 0x2C }
  - { offsetInCU: 0x4AA3, offset: 0x371E7, size: 0x8, addend: 0x0, symName: __ZN5QueueC2Ev, symObjAddr: 0x0, symBinAddr: 0x10000A910, symSize: 0x1C }
  - { offsetInCU: 0x4ACF, offset: 0x37213, size: 0x8, addend: 0x0, symName: __ZN5QueueC1Ev, symObjAddr: 0x1C, symBinAddr: 0x10000A92C, symSize: 0x2C }
  - { offsetInCU: 0x4AFB, offset: 0x3723F, size: 0x8, addend: 0x0, symName: __ZN5QueueD2Ev, symObjAddr: 0x48, symBinAddr: 0x10000A958, symSize: 0x60 }
  - { offsetInCU: 0x4B27, offset: 0x3726B, size: 0x8, addend: 0x0, symName: __ZNK5Queue7isEmptyEv, symObjAddr: 0xA8, symBinAddr: 0x10000A9B8, symSize: 0x24 }
  - { offsetInCU: 0x4B4F, offset: 0x37293, size: 0x8, addend: 0x0, symName: __ZN5Queue5serveEv, symObjAddr: 0xD8, symBinAddr: 0x10000A9DC, symSize: 0xA4 }
  - { offsetInCU: 0x4B85, offset: 0x372C9, size: 0x8, addend: 0x0, symName: __ZN5QueueD1Ev, symObjAddr: 0x17C, symBinAddr: 0x10000AA80, symSize: 0x2C }
  - { offsetInCU: 0x4BB1, offset: 0x372F5, size: 0x8, addend: 0x0, symName: __ZN5Queue6appendE5Email, symObjAddr: 0x1A8, symBinAddr: 0x10000AAAC, symSize: 0xB8 }
  - { offsetInCU: 0x4BF6, offset: 0x3733A, size: 0x8, addend: 0x0, symName: __ZN4NodeC1EP5Email, symObjAddr: 0x260, symBinAddr: 0x10000AB64, symSize: 0x34 }
  - { offsetInCU: 0x4C2E, offset: 0x37372, size: 0x8, addend: 0x0, symName: __ZN5Queue4peekEv, symObjAddr: 0x360, symBinAddr: 0x10000AB98, symSize: 0x70 }
  - { offsetInCU: 0x4C56, offset: 0x3739A, size: 0x8, addend: 0x0, symName: __ZN4NodeC2EP5Email, symObjAddr: 0x3D0, symBinAddr: 0x10000AC08, symSize: 0x24 }
...
